
hello:     file format elf64-x86-64

Contents of section .interp:
 0318 2f6c6962 36342f6c 642d6c69 6e75782d  /lib64/ld-linux-
 0328 7838362d 36342e73 6f2e3200           x86-64.so.2.    
Contents of section .note.gnu.property:
 0338 04000000 20000000 05000000 474e5500  .... .......GNU.
 0348 020000c0 04000000 03000000 00000000  ................
 0358 028000c0 04000000 01000000 00000000  ................
Contents of section .note.gnu.build-id:
 0368 04000000 14000000 03000000 474e5500  ............GNU.
 0378 306b6fd6 1b21fdec 36100b4d e02d8b9c  0ko..!..6..M.-..
 0388 239e81dd                             #...            
Contents of section .note.ABI-tag:
 038c 04000000 10000000 01000000 474e5500  ............GNU.
 039c 00000000 03000000 02000000 00000000  ................
Contents of section .gnu.hash:
 03b0 02000000 0e000000 01000000 06000000  ................
 03c0 00009100 01000000 0e000000 00000000  ................
 03d0 d065ce6d 15980c43                    .e.m...C        
Contents of section .dynsym:
 03d8 00000000 00000000 00000000 00000000  ................
 03e8 00000000 00000000 2d010000 12000000  ........-.......
 03f8 00000000 00000000 00000000 00000000  ................
 0408 86000000 12000000 00000000 00000000  ................
 0418 00000000 00000000 26010000 12000000  ........&.......
 0428 00000000 00000000 00000000 00000000  ................
 0438 05010000 12000000 00000000 00000000  ................
 0448 00000000 00000000 c1000000 12000000  ................
 0458 00000000 00000000 00000000 00000000  ................
 0468 46000000 12000000 00000000 00000000  F...............
 0478 00000000 00000000 f9000000 12000000  ................
 0488 00000000 00000000 00000000 00000000  ................
 0498 fe000000 12000000 00000000 00000000  ................
 04a8 00000000 00000000 d2000000 12000000  ................
 04b8 00000000 00000000 00000000 00000000  ................
 04c8 7c000000 12000000 00000000 00000000  |...............
 04d8 00000000 00000000 10000000 20000000  ............ ...
 04e8 00000000 00000000 00000000 00000000  ................
 04f8 01000000 20000000 00000000 00000000  .... ...........
 0508 00000000 00000000 2c000000 20000000  ........,... ...
 0518 00000000 00000000 00000000 00000000  ................
 0528 17010000 22000000 00000000 00000000  ...."...........
 0538 00000000 00000000 ef000000 11001a00  ................
 0548 40400000 00000000 10010000 00000000  @@..............
Contents of section .dynstr:
 0558 005f5f67 6d6f6e5f 73746172 745f5f00  .__gmon_start__.
 0568 5f49544d 5f646572 65676973 74657254  _ITM_deregisterT
 0578 4d436c6f 6e655461 626c6500 5f49544d  MCloneTable._ITM
 0588 5f726567 69737465 72544d43 6c6f6e65  _registerTMClone
 0598 5461626c 65005f5a 53746c73 49537431  Table._ZStlsISt1
 05a8 31636861 725f7472 61697473 49634545  1char_traitsIcEE
 05b8 52537431 33626173 69635f6f 73747265  RSt13basic_ostre
 05c8 616d4963 545f4553 355f6300 5f5a4e53  amIcT_ES5_c._ZNS
 05d8 6f6c7345 69005f5a 53743465 6e646c49  olsEi._ZSt4endlI
 05e8 63537431 31636861 725f7472 61697473  cSt11char_traits
 05f8 49634545 52537431 33626173 69635f6f  IcEERSt13basic_o
 0608 73747265 616d4954 5f54305f 4553365f  streamIT_T0_ES6_
 0618 005f5a4e 536f6c73 45504652 536f535f  ._ZNSolsEPFRSoS_
 0628 45005f5a 53743231 696f735f 62617365  E._ZSt21ios_base
 0638 5f6c6962 72617279 5f696e69 7476005f  _library_initv._
 0648 5a537434 636f7574 00667265 65006d61  ZSt4cout.free.ma
 0658 6c6c6f63 005f5f6c 6962635f 73746172  lloc.__libc_star
 0668 745f6d61 696e005f 5f637861 5f66696e  t_main.__cxa_fin
 0678 616c697a 65006d65 6d736574 00707269  alize.memset.pri
 0688 6e746600 6c696273 7464632b 2b2e736f  ntf.libstdc++.so
 0698 2e36006c 6962632e 736f2e36 00474c49  .6.libc.so.6.GLI
 06a8 42435858 5f332e34 2e333200 474c4942  BCXX_3.4.32.GLIB
 06b8 4358585f 332e3400 474c4942 435f322e  CXX_3.4.GLIBC_2.
 06c8 33340047 4c494243 5f322e32 2e3500    34.GLIBC_2.2.5. 
Contents of section .gnu.version:
 06d8 00000200 03000200 04000300 03000200  ................
 06e8 02000500 03000100 01000100 02000300  ................
Contents of section .gnu.version_r:
 06f8 01000200 34010000 10000000 30000000  ....4.......0...
 0708 42f89702 00000500 4d010000 10000000  B.......M.......
 0718 74299208 00000300 5c010000 00000000  t)......\.......
 0728 01000200 43010000 10000000 00000000  ....C...........
 0738 b4919606 00000400 68010000 10000000  ........h.......
 0748 751a6909 00000200 73010000 00000000  u.i.....s.......
Contents of section .rela.dyn:
 0758 703d0000 00000000 08000000 00000000  p=..............
 0768 00120000 00000000 783d0000 00000000  ........x=......
 0778 08000000 00000000 c0110000 00000000  ................
 0788 08400000 00000000 08000000 00000000  .@..............
 0798 08400000 00000000 d03f0000 00000000  .@.......?......
 07a8 06000000 0e000000 00000000 00000000  ................
 07b8 d83f0000 00000000 06000000 02000000  .?..............
 07c8 00000000 00000000 e03f0000 00000000  .........?......
 07d8 06000000 04000000 00000000 00000000  ................
 07e8 e83f0000 00000000 06000000 0b000000  .?..............
 07f8 00000000 00000000 f03f0000 00000000  .........?......
 0808 06000000 0c000000 00000000 00000000  ................
 0818 f83f0000 00000000 06000000 0d000000  .?..............
 0828 00000000 00000000 40400000 00000000  ........@@......
 0838 05000000 0f000000 00000000 00000000  ................
Contents of section .rela.plt:
 0848 983f0000 00000000 07000000 01000000  .?..............
 0858 00000000 00000000 a03f0000 00000000  .........?......
 0868 07000000 03000000 00000000 00000000  ................
 0878 a83f0000 00000000 07000000 05000000  .?..............
 0888 00000000 00000000 b03f0000 00000000  .........?......
 0898 07000000 06000000 00000000 00000000  ................
 08a8 b83f0000 00000000 07000000 07000000  .?..............
 08b8 00000000 00000000 c03f0000 00000000  .........?......
 08c8 07000000 08000000 00000000 00000000  ................
 08d8 c83f0000 00000000 07000000 0a000000  .?..............
 08e8 00000000 00000000                    ........        
Contents of section .init:
 1000 f30f1efa 4883ec08 488b05e1 2f000048  ....H...H.../..H
 1010 85c07402 ffd04883 c408c3             ..t...H....     
Contents of section .plt:
 1020 ff35622f 0000ff25 642f0000 0f1f4000  .5b/...%d/....@.
 1030 f30f1efa 68000000 00e9e2ff ffff6690  ....h.........f.
 1040 f30f1efa 68010000 00e9d2ff ffff6690  ....h.........f.
 1050 f30f1efa 68020000 00e9c2ff ffff6690  ....h.........f.
 1060 f30f1efa 68030000 00e9b2ff ffff6690  ....h.........f.
 1070 f30f1efa 68040000 00e9a2ff ffff6690  ....h.........f.
 1080 f30f1efa 68050000 00e992ff ffff6690  ....h.........f.
 1090 f30f1efa 68060000 00e982ff ffff6690  ....h.........f.
Contents of section .plt.got:
 10a0 f30f1efa ff25262f 0000660f 1f440000  .....%&/..f..D..
Contents of section .plt.sec:
 10b0 f30f1efa ff25de2e 0000660f 1f440000  .....%....f..D..
 10c0 f30f1efa ff25d62e 0000660f 1f440000  .....%....f..D..
 10d0 f30f1efa ff25ce2e 0000660f 1f440000  .....%....f..D..
 10e0 f30f1efa ff25c62e 0000660f 1f440000  .....%....f..D..
 10f0 f30f1efa ff25be2e 0000660f 1f440000  .....%....f..D..
 1100 f30f1efa ff25b62e 0000660f 1f440000  .....%....f..D..
 1110 f30f1efa ff25ae2e 0000660f 1f440000  .....%....f..D..
Contents of section .text:
 1120 f30f1efa 31ed4989 d15e4889 e24883e4  ....1.I..^H..H..
 1130 f0505445 31c031c9 488d3d2a 020000ff  .PTE1.1.H.=*....
 1140 159b2e00 00f4662e 0f1f8400 00000000  ......f.........
 1150 488d3db9 2e000048 8d05b22e 00004839  H.=....H......H9
 1160 f8741548 8b057e2e 00004885 c07409ff  .t.H..~...H..t..
 1170 e00f1f80 00000000 c30f1f80 00000000  ................
 1180 488d3d89 2e000048 8d35822e 00004829  H.=....H.5....H)
 1190 fe4889f0 48c1ee3f 48c1f803 4801c648  .H..H..?H...H..H
 11a0 d1fe7414 488b054d 2e000048 85c07408  ..t.H..M...H..t.
 11b0 ffe0660f 1f440000 c30f1f80 00000000  ..f..D..........
 11c0 f30f1efa 803d852f 00000075 2b554883  .....=./...u+UH.
 11d0 3dfa2d00 00004889 e5740c48 8b3d262e  =.-...H..t.H.=&.
 11e0 0000e8b9 feffffe8 64ffffff c6055d2f  ........d.....]/
 11f0 0000015d c30f1f00 c30f1f80 00000000  ...]............
 1200 f30f1efa e977ffff fff30f1e fa554889  .....w.......UH.
 1210 e54883ec 20897dec 8b45ec48 9848c1e0  .H.. .}..E.H.H..
 1220 024889c7 e8d7feff ff488945 f88b45ec  .H.......H.E..E.
 1230 4898488d 14850000 0000488b 45f8be00  H.H.......H.E...
 1240 00000048 89c7e875 feffffc7 45f00000  ...H...u....E...
 1250 0000eb68 8b45f083 e802ba00 00000085  ...h.E..........
 1260 c00f48c2 4898488d 14850000 0000488b  ..H.H.H.......H.
 1270 45f84801 d08b108b 45f083e8 01b90000  E.H.....E.......
 1280 000085c0 0f48c148 98488d0c 85000000  .....H.H.H......
 1290 00488b45 f84801c8 8b008d0c 028b45f0  .H.E.H........E.
 12a0 4898488d 14850000 0000488b 45f84801  H.H.......H.E.H.
 12b0 d08b55f0 01ca8910 8345f001 8b45f03b  ..U......E...E.;
 12c0 45ec7c90 c745f400 000000eb 388b45f4  E.|..E......8.E.
 12d0 4898488d 14850000 0000488b 45f84801  H.H.......H.E.H.
 12e0 d08b0089 c6488d05 542d0000 4889c7e8  .....H..T-..H...
 12f0 1cfeffff be200000 004889c7 e8dffdff  ..... ...H......
 1300 ff8345f4 018b45f4 3b45ec7c c0488b05  ..E...E.;E.|.H..
 1310 c42c0000 4889c648 8d05222d 00004889  .,..H..H.."-..H.
 1320 c7e8aafd ffff488b 45f84889 c6488d05  ......H.E.H..H..
 1330 d00c0000 4889c7b8 00000000 e86ffdff  ....H........o..
 1340 ff488b05 902c0000 4889c648 8d05ee2c  .H...,..H..H...,
 1350 00004889 c7e876fd ffff488b 45f84889  ..H...v...H.E.H.
 1360 c7e88afd ffff90c9 c3f30f1e fa554889  .............UH.
 1370 e54883ec 10c745fc 0a000000 eb0abf03  .H....E.........
 1380 000000e8 81feffff 8b45fc8d 50ff8955  .........E..P..U
 1390 fc85c00f 95c084c0 75e4b800 000000c9  ........u.......
 13a0 c3                                   .               
Contents of section .fini:
 13a4 f30f1efa 4883ec08 4883c408 c3        ....H...H....   
Contents of section .rodata:
 2000 01000200 61727220 61646472 3a202570  ....arr addr: %p
 2010 0a000101 01                          .....           
Contents of section .eh_frame_hdr:
 2018 011b033b 3c000000 06000000 08f0ffff  ...;<...........
 2028 70000000 88f0ffff 98000000 98f0ffff  p...............
 2038 b0000000 08f1ffff 58000000 f1f1ffff  ........X.......
 2048 c8000000 51f3ffff e8000000           ....Q.......    
Contents of section .eh_frame:
 2058 14000000 00000000 017a5200 01781001  .........zR..x..
 2068 1b0c0708 90010000 14000000 1c000000  ................
 2078 a8f0ffff 26000000 00440710 00000000  ....&....D......
 2088 24000000 34000000 90efffff 80000000  $...4...........
 2098 000e1046 0e184a0f 0b770880 003f1a39  ...F..J..w...?.9
 20a8 2a332422 00000000 14000000 5c000000  *3$"........\...
 20b8 e8efffff 10000000 00000000 00000000  ................
 20c8 14000000 74000000 e0efffff 70000000  ....t.......p...
 20d8 00000000 00000000 1c000000 8c000000  ................
 20e8 21f1ffff 60010000 00450e10 8602430d  !...`....E....C.
 20f8 06035701 0c070800 1c000000 ac000000  ..W.............
 2108 61f2ffff 38000000 00450e10 8602430d  a...8....E....C.
 2118 066f0c07 08000000 00000000           .o..........    
Contents of section .init_array:
 3d70 00120000 00000000                    ........        
Contents of section .fini_array:
 3d78 c0110000 00000000                    ........        
Contents of section .dynamic:
 3d80 01000000 00000000 34010000 00000000  ........4.......
 3d90 01000000 00000000 43010000 00000000  ........C.......
 3da0 0c000000 00000000 00100000 00000000  ................
 3db0 0d000000 00000000 a4130000 00000000  ................
 3dc0 19000000 00000000 703d0000 00000000  ........p=......
 3dd0 1b000000 00000000 08000000 00000000  ................
 3de0 1a000000 00000000 783d0000 00000000  ........x=......
 3df0 1c000000 00000000 08000000 00000000  ................
 3e00 f5feff6f 00000000 b0030000 00000000  ...o............
 3e10 05000000 00000000 58050000 00000000  ........X.......
 3e20 06000000 00000000 d8030000 00000000  ................
 3e30 0a000000 00000000 7f010000 00000000  ................
 3e40 0b000000 00000000 18000000 00000000  ................
 3e50 15000000 00000000 00000000 00000000  ................
 3e60 03000000 00000000 803f0000 00000000  .........?......
 3e70 02000000 00000000 a8000000 00000000  ................
 3e80 14000000 00000000 07000000 00000000  ................
 3e90 17000000 00000000 48080000 00000000  ........H.......
 3ea0 07000000 00000000 58070000 00000000  ........X.......
 3eb0 08000000 00000000 f0000000 00000000  ................
 3ec0 09000000 00000000 18000000 00000000  ................
 3ed0 1e000000 00000000 08000000 00000000  ................
 3ee0 fbffff6f 00000000 01000008 00000000  ...o............
 3ef0 feffff6f 00000000 f8060000 00000000  ...o............
 3f00 ffffff6f 00000000 02000000 00000000  ...o............
 3f10 f0ffff6f 00000000 d8060000 00000000  ...o............
 3f20 f9ffff6f 00000000 03000000 00000000  ...o............
 3f30 00000000 00000000 00000000 00000000  ................
 3f40 00000000 00000000 00000000 00000000  ................
 3f50 00000000 00000000 00000000 00000000  ................
 3f60 00000000 00000000 00000000 00000000  ................
 3f70 00000000 00000000 00000000 00000000  ................
Contents of section .got:
 3f80 803d0000 00000000 00000000 00000000  .=..............
 3f90 00000000 00000000 30100000 00000000  ........0.......
 3fa0 40100000 00000000 50100000 00000000  @.......P.......
 3fb0 60100000 00000000 70100000 00000000  `.......p.......
 3fc0 80100000 00000000 90100000 00000000  ................
 3fd0 00000000 00000000 00000000 00000000  ................
 3fe0 00000000 00000000 00000000 00000000  ................
 3ff0 00000000 00000000 00000000 00000000  ................
Contents of section .data:
 4000 00000000 00000000 08400000 00000000  .........@......
Contents of section .comment:
 0000 4743433a 20285562 756e7475 2031332e  GCC: (Ubuntu 13.
 0010 332e302d 36756275 6e747532 7e32342e  3.0-6ubuntu2~24.
 0020 30342e31 29203133 2e332e30 00        04.1) 13.3.0.   
Contents of section .debug_aranges:
 0000 2c000000 02000000 00000800 00000000  ,...............
 0010 09120000 00000000 98010000 00000000  ................
 0020 00000000 00000000 00000000 00000000  ................
Contents of section .debug_info:
 0000 81230000 05000108 00000000 2c090700  .#..........,...
 0010 00212200 00000000 00000912 00000000  .!".............
 0020 00009801 00000000 00000000 00000a74  ...............t
 0030 05000003 d6173a00 00000808 074f0400  ......:......O..
 0040 002d510b 00001802 00760000 0014c900  .-Q......v......
 0050 00007600 00000014 f30b0000 76000000  ..v.........v...
 0060 04147c08 00007d00 00000814 f6070000  ..|...}.........
 0070 7d000000 10000804 07540400 002e080a  }........T......
 0080 110d0000 04141776 00000015 08050e01  .......v........
 0090 140b0000 d3000000 2f040511 03b80000  ......../.......
 00a0 0021ab07 00001213 76000000 21990b00  .!......v...!...
 00b0 00130ad3 00000000 030a0300 00050f07  ................
 00c0 ef000000 00034a06 00000514 05980000  ......J.........
 00d0 00040017 e3000000 e3000000 183a0000  .............:..
 00e0 00030008 0106a10d 00000de3 00000030  ...............0
 00f0 0405696e 74000a16 0b000005 15038b00  ..int...........
 0100 00000a18 0b000006 0615f600 00000d02  ................
 0110 0100000a e1040000 0705191f 01000019  ................
 0120 080d0000 d8083108 a6020000 035d0300  ......1......]..
 0130 00083307 ef000000 00035c0f 00000836  ..3.......\....6
 0140 093f1000 00080349 0a000008 37093f10  .?.....I....7.?.
 0150 00001003 a0050000 0838093f 10000018  .........8.?....
 0160 03fa0600 00083909 3f100000 2003c00d  ......9.?... ...
 0170 0000083a 093f1000 00280385 01000008  ...:.?...(......
 0180 3b093f10 00003003 e3100000 083c093f  ;.?...0......<.?
 0190 10000038 03050100 00083d09 3f100000  ...8......=.?...
 01a0 4003a308 00000840 093f1000 004803e8  @......@.?...H..
 01b0 04000008 41093f10 00005003 a6030000  ....A.?...P.....
 01c0 0842093f 10000058 03810200 00084416  .B.?...X......D.
 01d0 b91c0000 6003c50f 00000846 14be1c00  ....`......F....
 01e0 0068038f 0e000008 4807ef00 00007003  .h......H.....p.
 01f0 18100000 084907ef 00000074 03fc0c00  .....I.....t....
 0200 00084a0b 75180000 7803e403 0000084d  ..J.u...x......M
 0210 12b20200 00800396 09000008 4e0f9716  ............N...
 0220 00008203 71000000 084f08c3 1c000083  ....q....O......
 0230 03ef0c00 0008510f d31c0000 8803000d  ......Q.........
 0240 00000859 0d811800 009003fb 03000008  ...Y............
 0250 5b17dd1c 00009803 8e0b0000 085c19e7  [............\..
 0260 1c0000a0 039d0100 00085d14 be1c0000  ..........].....
 0270 a8034709 0000085e 097d0000 00b00371  ..G....^.}.....q
 0280 09000008 5f0a2e00 0000b803 d5060000  ...._...........
 0290 086007ef 000000c0 03da1000 00086208  .`............b.
 02a0 ec1c0000 c4000a0c 0d000009 07191f01  ................
 02b0 00000802 07d20e00 0005ea00 00003173  ..............1s
 02c0 7464000b 32010b07 0d000002 0a400b02  td..2........@..
 02d0 01000002 0a8d0b7f 00000002 0a8f0b07  ................
 02e0 0d000002 0a900b1e 0d000002 0a910b3a  ...............:
 02f0 0d000002 0a920b6c 0d000002 0a930b88  .......l........
 0300 0d000002 0a940ba9 0d000002 0a950bc5  ................
 0310 0d000002 0a960be2 0d000002 0a970b03  ................
 0320 0e000002 0a980b1a 0e000002 0a990b27  ...............'
 0330 0e000002 0a9a0b4d 0e000002 0a9b0b73  .......M.......s
 0340 0e000002 0a9c0b8f 0e000002 0a9d0bba  ................
 0350 0e000002 0a9e0bd6 0e000002 0aa00bed  ................
 0360 0e000002 0aa20b0f 0f000002 0aa30b30  ...............0
 0370 0f000002 0aa40b4c 0f000002 0aa60b72  .......L.......r
 0380 0f000002 0aa90b97 0f000002 0aac0bbd  ................
 0390 0f000002 0aae0be2 0f000002 0ab00bfe  ................
 03a0 0f000002 0ab20b1e 10000002 0ab30b44  ...............D
 03b0 10000002 0ab40b5f 10000002 0ab50b7a  ......._.......z
 03c0 10000002 0ab60b95 10000002 0ab70bb0  ................
 03d0 10000002 0ab80bcb 10000002 0ab90b97  ................
 03e0 11000002 0aba0bad 11000002 0abb0bcd  ................
 03f0 11000002 0abc0bed 11000002 0abd0b0d  ................
 0400 12000002 0abe0b38 12000002 0abf0b53  .......8.......S
 0410 12000002 0ac10b7b 12000002 0ac30b9e  .......{........
 0420 12000002 0ac40bbe 12000002 0ac50bea  ................
 0430 12000002 0ac60b0f 13000002 0ac70b2f  .............../
 0440 13000002 0ac80b46 13000002 0ac90b67  .......F.......g
 0450 13000002 0aca0b88 13000002 0acb0ba9  ................
 0460 13000002 0acc0bca 13000002 0acd0be2  ................
 0470 13000002 0ace0bfe 13000002 0ace0b1d  ................
 0480 14000002 0acf0b3c 14000002 0acf0b5b  .......<.......[
 0490 14000002 0ad00b7a 14000002 0ad00b99  .......z........
 04a0 14000002 0ad10bb8 14000002 0ad10bd7  ................
 04b0 14000002 0ad20bf6 14000002 0ad20b1b  ................
 04c0 1500000c 0a0b0116 c3150000 0c0a0c01  ................
 04d0 16e61500 000c0a0d 01161216 00000c0a  ................
 04e0 1b010e7b 1200000c 0a1e010e 720f0000  ...{........r...
 04f0 0c0a2101 0ebd0f00 000c0a24 010efe0f  ..!........$....
 0500 00000c0a 28010ec3 1500000c 0a29010e  ....(........)..
 0510 e6150000 0c0a2a01 0e121600 00137405  ......*.......t.
 0520 00000b34 011a3a00 0000226d 020000b0  ...4..:..."m....
 0530 0a221a04 0000060b 1aab0100 000d3d0d  ."............=.
 0540 1a070000 32ad0100 00080d61 0bf50600  ....2......a....
 0550 00032205 00000d63 0d7d0000 000033ad  .."....c.}....3.
 0560 0100000d 65102100 00007205 00007d05  ....e.!...r...}.
 0570 00000bba 16000001 7d000000 00231b0c  ........}....#..
 0580 000067dc 0f00008f 05000095 0500000b  ..g.............
 0590 ba160000 0023ed0d 00006839 020000a7  .....#....h9....
 05a0 050000ad 0500000b ba160000 00344009  .............4@.
 05b0 00000d6a 0dfe0e00 007d0000 00c50500  ...j.....}......
 05c0 00cb0500 000bbf16 00000012 ad010000  ................
 05d0 72fb0900 00dd0500 00e30500 000bba16  r...............
 05e0 00000012 ad010000 74610e00 00f50500  ........ta......
 05f0 00000600 000bba16 000001c4 16000000  ................
 0600 12ad0100 0077b303 00001206 00001d06  .....w..........
 0610 00000bba 16000001 38070000 0012ad01  ........8.......
 0620 00007b9d 0400002f 0600003a 0600000b  ..{..../...:....
 0630 ba160000 01c91600 00001636 0900000d  ...........6....
 0640 88072e0f 0000cf16 00005206 00005d06  ..........R...].
 0650 00000bba 16000001 c4160000 00163609  ..............6.
 0660 00000d8c 07e70a00 00cf1600 00750600  .............u..
 0670 00800600 000bba16 000001c9 16000000  ................
 0680 125d0000 0093b607 00009206 00009d06  .]..............
 0690 00000bba 1600000b ef000000 00125003  ..............P.
 06a0 00009600 020000af 060000ba 0600000b  ................
 06b0 ba160000 01cf1600 0000354f 0c00000d  ..........5O....
 06c0 a210bb01 00007d16 000001d3 060000d9  ......}.........
 06d0 0600000b bf160000 0036b30a 00000db7  .........6......
 06e0 075d0c00 00d41600 0001ee06 00000bbf  .]..............
 06f0 16000000 000d4405 0000020d 55102207  ......D.....U.".
 0700 00003750 0300000d e605a106 000001cf  ..7P............
 0710 16000001 cf160000 0000020d 421a4405  ............B.D.
 0720 00003837 0a00000d 51086104 00003807  ..87....Q.a...8.
 0730 00000144 05000000 13e70200 000b3801  ...D..........8.
 0740 1d781600 0039dd0a 00000d45 07000002  .x...9.....E....
 0750 0df31a02 0700003a 10090000 010e5101  .......:......Q.
 0760 0c3f0900 003b6409 00000e5f 0107d708  .?...;d...._....
 0770 00008107 000001d9 16000001 de160000  ................
 0780 0013780b 00000e53 0121e300 00000d81  ..x....S.!......
 0790 07000024 6571006a 017a1000 007d1600  ...$eq.j.z...}..
 07a0 00b00700 0001de16 000001de 16000000  ................
 07b0 246c7400 6e01ca0b 00007d16 0000cd07  $lt.n.....}.....
 07c0 000001de 16000001 de160000 00075409  ..............T.
 07d0 00000e76 01072010 0000ef00 0000f207  ...v.. .........
 07e0 000001e3 16000001 e3160000 011d0500  ................
 07f0 000007f1 0100000e 89010777 0d00001d  ...........w....
 0800 0500000d 08000001 e3160000 00070206  ................
 0810 00000e93 01076b06 0000e316 00003208  ......k.......2.
 0820 000001e3 16000001 1d050000 01de1600  ................
 0830 000007d5 0000000e 9f0107d9 090000e8  ................
 0840 16000057 08000001 e8160000 01e31600  ...W............
 0850 00011d05 00000007 77030000 0eab0107  ........w.......
 0860 8a0f0000 e8160000 7c080000 01e81600  ........|.......
 0870 0001e316 0000011d 05000000 07640900  .............d..
 0880 000eb701 07aa0c00 00e81600 00a10800  ................
 0890 0001e816 0000011d 05000001 81070000  ................
 08a0 0007750b 00000ec3 01074c05 00008107  ..u.......L.....
 08b0 0000bc08 000001ed 16000000 13070500  ................
 08c0 000e5401 21ef0000 000dbc08 00000704  ..T.!...........
 08d0 0500000e c9010711 010000bc 080000e9  ................
 08e0 08000001 de160000 0007f804 00000ecd  ................
 08f0 0107250c 00007d16 00000909 000001ed  ..%...}.........
 0900 16000001 ed160000 003c656f 66000ed2  .........<eof...
 0910 0107e100 0000bc08 0000071f 0d00000e  ................
 0920 d6010712 030000bc 08000035 09000001  ...........5....
 0930 ed160000 000e890a 0000e300 00000002  ................
 0940 0f350bf2 16000002 0f360b38 18000002  .5.......6.8....
 0950 0f370b53 18000025 07000000 10320d02  .7.S...%.....2..
 0960 11830bcf 18000002 11840b02 19000002  ................
 0970 118a0b67 19000002 118d0b84 19000002  ...g............
 0980 11900b9f 19000002 11910bb5 19000002  ................
 0990 11920bcb 19000002 11930be1 19000002  ................
 09a0 11950b0c 1a000002 11980b28 1a000002  ...........(....
 09b0 119a0b3f 1a000002 119d0b5b 1a000002  ...?.......[....
 09c0 119e0b77 1a000002 119f0b98 1a000002  ...w............
 09d0 11a10bb9 1a000002 11a40bda 1a000002  ................
 09e0 11a70bed 1a000002 11a90bfa 1a000002  ................
 09f0 11aa0b0c 1b000002 11ab0b2c 1b000002  ...........,....
 0a00 11ac0b50 1b000002 11ad0b74 1b000002  ...P.......t....
 0a10 11af0b8b 1b000002 11b00bac 1b000002  ................
 0a20 11f41635 19000002 11f916a7 15000002  ...5............
 0a30 11fa16c8 1b000002 11fc16e4 1b000002  ................
 0a40 11fd1642 1c000002 11fe16fa 1b000002  ...B............
 0a50 11ff161e 1c00000c 11000116 5d1c0000  ............]...
 0a60 0212620b a6020000 0212630b fc1c0000  ..b.......c.....
 0a70 0212650b 121d0000 0212660b 241d0000  ..e.......f.$...
 0a80 0212670b 3a1d0000 0212680b 511d0000  ..g.:.....h.Q...
 0a90 0212690b 681d0000 02126a0b 7e1d0000  ..i.h.....j.~...
 0aa0 02126b0b 951d0000 02126c0b b61d0000  ..k.......l.....
 0ab0 02126d0b d71d0000 0212710b f31d0000  ..m.......q.....
 0ac0 0212720b 191e0000 0212740b 3a1e0000  ..r.......t.:...
 0ad0 0212750b 5b1e0000 0212760b 7c1e0000  ..u.[.....v.|...
 0ae0 0212780b 931e0000 0212790b aa1e0000  ..x.......y.....
 0af0 02127e0b b71e0000 0212830b c91e0000  ..~.............
 0b00 0212840b df1e0000 0212850b fa1e0000  ................
 0b10 0212870b 0c1f0000 0212880b 231f0000  ............#...
 0b20 02128b0b 491f0000 02128d0b 551f0000  ....I.......U...
 0b30 02128f0b 6b1f0000 3dfa0800 000b5501  ....k...=.....U.
 0b40 4102133a 0b6a1600 003e706d 72002635  A..:.j...>pmr.&5
 0b50 0b3f5f56 32002752 01021452 0b931f00  .?_V2.'R...R....
 0b60 00021453 0b871f00 00021454 0b7f0000  ...S.......T....
 0b70 0002145c 0ba41f00 00021465 0bbf1f00  ...\.......e....
 0b80 00021468 0bda1f00 00021469 0bf01f00  ...h.......i....
 0b90 00400706 0000000c 000016b6 08000015  .@..............
 0ba0 6e058c09 00000620 0000b20b 0000bd0b  n...... ........
 0bb0 00000bc5 21000001 ef000000 0041290b  ....!........A).
 0bc0 00001649 2f910b00 000116b6 08000016  ...I/...........
 0bd0 6e07e007 00003f22 0000e20b 0000ed0b  n.....?"........
 0be0 00000bc5 21000001 44220000 000e890a  ....!...D"......
 0bf0 0000e300 00004282 0f000057 07000000  ......B....W....
 0c00 0a250e00 00178f21 910b0000 431d0500  .%.....!....C...
 0c10 00193f12 18050000 000c0000 02184d0b  ..?...........M.
 0c20 0b200000 02184d0b 2f200000 0218540b  . ....M./ ....T.
 0c30 53200000 0218570b 6e200000 02185d0b  S ....W.n ....].
 0c40 85200000 02185e0b a1200000 02185f0b  . ....^.. ...._.
 0c50 c1200000 02185f0b e0200000 0218600b  . ...._.. ....`.
 0c60 ff200000 0218600b 1f210000 0218610b  . ....`..!....a.
 0c70 3f210000 0218610b 5e210000 0218620b  ?!....a.^!....b.
 0c80 7d210000 0218620b 9d210000 1a800a00  }!....b..!......
 0c90 000c910d b40c0000 1bce0d00 00841600  ................
 0ca0 001bce0d 00008416 00001bce 0d000084  ................
 0cb0 16000000 07461000 0016df02 05860000  .....F..........
 0cc0 00062000 00e10c00 000e890a 0000e300  .. .............
 0cd0 00000e82 0f000057 07000001 06200000  .......W..... ..
 0ce0 00449202 0000163a 02059a10 00000620  .D.....:....... 
 0cf0 00000e82 0f000057 07000001 06200000  .......W..... ..
 0d00 01e30000 00000004 99030000 1b35010f  .............5..
 0d10 7f000000 1e0d0000 01ef0000 00000409  ................
 0d20 0900001b a7030f7f 00000035 0d000001  ...........5....
 0d30 350d0000 00051301 0000042f 0900001b  5........../....
 0d40 c403115b 0d00005b 0d000001 5b0d0000  ...[...[....[...
 0d50 01ef0000 0001350d 00000005 600d0000  ......5.....`...
 0d60 080405f8 0100000d 600d0000 04020900  ........`.......
 0d70 001bb503 0f7f0000 00880d00 0001600d  ..............`.
 0d80 00000135 0d000000 04d20900 001bcb03  ...5............
 0d90 0cef0000 00a40d00 0001a40d 00000135  ...............5
 0da0 0d000000 05670d00 0004da05 00001bd5  .....g..........
 0db0 020cef00 0000c50d 00000135 0d000001  ...........5....
 0dc0 ef000000 00044305 00001bdc 020cef00  ......C.........
 0dd0 0000e20d 00000135 0d000001 a40d0000  .......5........
 0de0 0f000746 0800001b 1b030c3d 080000ef  ...F.......=....
 0df0 00000003 0e000001 350d0000 01a40d00  ........5.......
 0e00 000f0004 0a090000 1ba8030f 7f000000  ................
 0e10 1a0e0000 01350d00 00001c82 0b00001b  .....5..........
 0e20 ae030f7f 00000004 c80a0000 1b4c010f  .............L..
 0e30 2e000000 480e0000 01b90200 00012e00  ....H...........
 0e40 00000148 0e000000 05020100 00049003  ...H............
 0e50 00001b41 010f2e00 0000730e 0000015b  ...A......s....[
 0e60 0d000001 b9020000 012e0000 0001480e  ..............H.
 0e70 00000004 660a0000 1b3d010c ef000000  ....f....=......
 0e80 8a0e0000 018a0e00 0000050e 01000004  ................
 0e90 16080000 1b6a010f 2e000000 b50e0000  .....j..........
 0ea0 015b0d00 0001b50e 0000012e 00000001  .[..............
 0eb0 480e0000 0005b902 00000403 0900001b  H...............
 0ec0 b6030f7f 000000d6 0e000001 600d0000  ............`...
 0ed0 01350d00 000004c1 0800001b bc030f7f  .5..............
 0ee0 000000ed 0e000001 600d0000 00040f10  ........`.......
 0ef0 00001be6 020cef00 00000f0f 0000015b  ...............[
 0f00 0d000001 2e000000 01a40d00 000f0007  ................
 0f10 410b0000 1b22030c 380b0000 ef000000  A...."..8.......
 0f20 300f0000 01a40d00 0001a40d 00000f00  0...............
 0f30 04780900 001bd303 0f7f0000 004c0f00  .x...........L..
 0f40 00017f00 00000135 0d000000 04420500  .......5.....B..
 0f50 001bee02 0cef0000 006d0f00 0001350d  .........m....5.
 0f60 000001a4 0d000001 6d0f0000 00054100  ........m.....A.
 0f70 000007af 0d00001b 6b030ca6 0d0000ef  ........k.......
 0f80 00000097 0f000001 350d0000 01a40d00  ........5.......
 0f90 00016d0f 00000004 0e100000 1bfb020c  ..m.............
 0fa0 ef000000 bd0f0000 015b0d00 00012e00  .........[......
 0fb0 000001a4 0d000001 6d0f0000 00075001  ........m.....P.
 0fc0 00001b72 030c4701 0000ef00 0000e20f  ...r..G.........
 0fd0 000001a4 0d000001 a40d0000 016d0f00  .............m..
 0fe0 00000425 0a00001b f6020cef 000000fe  ...%............
 0ff0 0f000001 a40d0000 016d0f00 00000763  .........m.....c
 1000 0600001b 6f030c5a 060000ef 0000001e  ....o..Z........
 1010 10000001 a40d0000 016d0f00 00000410  .........m......
 1020 0500001b 46010f2e 0000003f 10000001  ....F......?....
 1030 3f100000 01600d00 0001480e 00000005  ?....`....H.....
 1040 e3000000 06430300 001b7911 5b0d0000  .....C....y.[...
 1050 5f100000 015b0d00 0001a40d 00000006  _....[..........
 1060 ac0f0000 1b820cef 0000007a 10000001  ...........z....
 1070 a40d0000 01a40d00 000006c0 0900001b  ................
 1080 9b0cef00 00009510 000001a4 0d000001  ................
 1090 a40d0000 00060303 00001b62 115b0d00  ...........b.[..
 10a0 00b01000 00015b0d 000001a4 0d000000  ......[.........
 10b0 06f10e00 001bd40f 2e000000 cb100000  ................
 10c0 01a40d00 0001a40d 00000004 fd0b0000  ................
 10d0 1b13040f 2e000000 f1100000 015b0d00  .............[..
 10e0 00012e00 000001a4 0d000001 f1100000  ................
 10f0 00059211 00004574 6d00381c 07089211  ......Etm.8.....
 1100 000003e5 0e00001c 0907ef00 00000003  ................
 1110 460d0000 1c0a07ef 00000004 03b80e00  F...............
 1120 001c0b07 ef000000 08038a02 00001c0c  ................
 1130 07ef0000 000c039f 0300001c 0d07ef00  ................
 1140 00001003 6f030000 1c0e07ef 00000014  ....o...........
 1150 03590e00 001c0f07 ef000000 1803fd00  .Y..............
 1160 00001c10 07ef0000 001c032e 0a00001c  ................
 1170 1107ef00 00002003 bb0f0000 1c140ce3  ...... .........
 1180 12000028 03540d00 001c150f b9020000  ...(.T..........
 1190 30000df6 10000006 df0c0000 1bf70f2e  0...............
 11a0 000000ad 11000001 a40d0000 0006b30f  ................
 11b0 00001b7d 115b0d00 00cd1100 00015b0d  ...}.[........[.
 11c0 000001a4 0d000001 2e000000 0006c20b  ................
 11d0 00001b85 0cef0000 00ed1100 0001a40d  ................
 11e0 000001a4 0d000001 2e000000 0006690f  ..............i.
 11f0 00001b67 115b0d00 000d1200 00015b0d  ...g.[........[.
 1200 000001a4 0d000001 2e000000 0004900a  ................
 1210 00001b70 010f2e00 00003312 0000013f  ...p......3....?
 1220 10000001 33120000 012e0000 0001480e  ....3.........H.
 1230 00000005 a40d0000 066e0800 001bd80f  .........n......
 1240 2e000000 53120000 01a40d00 0001a40d  ....S...........
 1250 00000004 370d0000 1b92010f 6f120000  ....7.......o...
 1260 6f120000 01a40d00 00017612 00000008  o.........v.....
 1270 0804b909 0000055b 0d000004 67080000  .......[....g...
 1280 1b97010e 97120000 97120000 01a40d00  ................
 1290 00017612 00000008 0404de03 0000064d  ..v............M
 12a0 0d00001b f2115b0d 0000be12 0000015b  ......[........[
 12b0 0d000001 a40d0000 01761200 00000792  .........v......
 12c0 0500001b f4011189 050000e3 120000e3  ................
 12d0 12000001 a40d0000 01761200 0001ef00  .........v......
 12e0 00000008 08059308 0000077a 0f00001b  ...........z....
 12f0 f7011a71 0f00003a 0000000f 13000001  ...q...:........
 1300 a40d0000 01761200 0001ef00 00000006  .....v..........
 1310 4c000000 1b9f0f2e 0000002f 13000001  L........../....
 1320 5b0d0000 01a40d00 00012e00 00000004  [...............
 1330 430e0000 1b39010c ef000000 46130000  C....9......F...
 1340 017f0000 000004f0 1000001b 1b010cef  ................
 1350 00000067 13000001 a40d0000 01a40d00  ...g............
 1360 00012e00 00000004 cf0a0000 1b1f0111  ................
 1370 5b0d0000 88130000 015b0d00 0001a40d  [........[......
 1380 0000012e 00000000 04d60c00 001b2401  ..............$.
 1390 115b0d00 00a91300 00015b0d 000001a4  .[........[.....
 13a0 0d000001 2e000000 0004650d 00001b28  ..........e....(
 13b0 01115b0d 0000ca13 0000015b 0d000001  ..[........[....
 13c0 600d0000 012e0000 00000444 0500001b  `..........D....
 13d0 e3020cef 000000e2 13000001 a40d0000  ................
 13e0 0f000730 0d00001b 1f030c27 0d0000ef  ...0.......'....
 13f0 000000fe 13000001 a40d0000 0f0009cc  ................
 1400 0f00001b ba1dcc0f 0000a40d 00001d14  ................
 1410 000001a4 0d000001 600d0000 0009cc0f  ........`.......
 1420 00001bb8 17cc0f00 005b0d00 003c1400  .........[...<..
 1430 00015b0d 00000160 0d000000 093e0d00  ..[....`.....>..
 1440 001bde1d 3e0d0000 a40d0000 5b140000  ....>.......[...
 1450 01a40d00 0001a40d 00000009 3e0d0000  ............>...
 1460 1bdc173e 0d00005b 0d00007a 14000001  ...>...[...z....
 1470 5b0d0000 01a40d00 00000949 0b00001b  [..........I....
 1480 c41d490b 0000a40d 00009914 000001a4  ..I.............
 1490 0d000001 600d0000 0009490b 00001bc2  ....`.....I.....
 14a0 17490b00 005b0d00 00b81400 00015b0d  .I...[........[.
 14b0 00000160 0d000000 09140c00 001be91d  ...`............
 14c0 140c0000 a40d0000 d7140000 01a40d00  ................
 14d0 0001a40d 00000009 140c0000 1be71714  ................
 14e0 0c00005b 0d0000f6 14000001 5b0d0000  ...[........[...
 14f0 01a40d00 0000076e 0a00001b 12011d6e  .......n.......n
 1500 0a0000a4 0d00001b 15000001 a40d0000  ................
 1510 01600d00 00012e00 00000007 6e0a0000  .`..........n...
 1520 1b100117 6e0a0000 5b0d0000 40150000  ....n...[...@...
 1530 015b0d00 0001600d 0000012e 00000000  .[....`.........
 1540 46930100 000b5701 0bc31500 00020afb  F.....W.........
 1550 0bc31500 000c0a04 010be615 00000c0a  ................
 1560 05010b12 16000025 f6020000 1d250b02  .......%.....%..
 1570 11cc0b35 19000002 11dc0bc8 1b000002  ...5............
 1580 11e70be4 1b000002 11e80bfa 1b000002  ................
 1590 11e90b1e 1c000002 11eb0b42 1c000002  ...........B....
 15a0 11ec0b5d 1c000047 64697600 11d903bf  ...]...Gdiv.....
 15b0 02000035 19000001 0b160000 010b1600  ...5............
 15c0 00000004 3b0e0000 1b990114 df150000  ....;...........
 15d0 df150000 01a40d00 00017612 00000008  ..........v.....
 15e0 1004b409 00000762 0100001b fc011659  .......b.......Y
 15f0 0100000b 1600000b 16000001 a40d0000  ................
 1600 01761200 0001ef00 00000008 08058e08  .v..............
 1610 000007a2 0700001b 01021f99 07000037  ...............7
 1620 16000037 16000001 a40d0000 01761200  ...7.........v..
 1630 0001ef00 00000008 08074a04 00004820  ..........J...H 
 1640 1003a901 10330400 006a1600 00260b04  .....3...j...&..
 1650 0000aa01 0d0b1600 00080026 34030000  ...........&4...
 1660 ab010fdf 15000010 10004935 04000003  ..........I5....
 1670 b401033e 16000010 4af80d00 00080102  ...>....J.......
 1680 580c0000 0d7d1600 00080108 980d0000  X....}..........
 1690 08100704 08000008 01069a0d 00000802  ................
 16a0 05760a00 00081005 5c0d0000 080210d3  .v......\.......
 16b0 0f000008 04105400 00000544 05000005  ......T....D....
 16c0 f5060000 10f50600 004b0844 05000010  .........K.D....
 16d0 44050000 054a0700 00108107 0000108e  D....J..........
 16e0 07000005 8e070000 05810700 0010c908  ................
 16f0 0000194a 03000060 1e330838 18000003  ...J...`.3.8....
 1700 93060000 1e37093f 10000000 03c40e00  .....7.?........
 1710 001e3809 3f100000 0803ce08 00001e3e  ..8.?..........>
 1720 093f1000 0010039a 0a00001e 44093f10  .?..........D.?.
 1730 00001803 490e0000 1e45093f 10000020  ....I....E.?... 
 1740 038f0600 001e4609 3f100000 2803c00e  ......F.?...(...
 1750 00001e47 093f1000 003003ca 0800001e  ...G.?...0......
 1760 48093f10 00003803 060c0000 1e49093f  H.?...8......I.?
 1770 10000040 03340600 001e4a09 3f100000  ...@.4....J.?...
 1780 4803bc05 00001e4b 08e30000 005003c0  H......K.....P..
 1790 0500001e 4c08e300 00005103 13000000  ....L.....Q.....
 17a0 1e4e08e3 00000052 03d80200 001e5008  .N.....R......P.
 17b0 e3000000 5303e405 00001e52 08e30000  ....S......R....
 17c0 005403a4 0b00001e 5408e300 00005503  .T......T.....U.
 17d0 6e100000 1e5b08e3 00000056 03ce0400  n....[.....V....
 17e0 001e5c08 e3000000 57030f00 00001e5f  ..\.....W......_
 17f0 08e30000 005803d4 0200001e 6108e300  .....X......a...
 1800 00005903 e0050000 1e6308e3 0000005a  ..Y......c.....Z
 1810 03a00b00 001e6508 e3000000 5b036a10  ......e.....[.j.
 1820 00001e6c 08e30000 005c03ca 0400001e  ...l.....\......
 1830 6d08e300 00005d00 066d0d00 001e7a0e  m.....]..m....z.
 1840 3f100000 53180000 01ef0000 0001b902  ?...S...........
 1850 00000027 64030000 1e7d165f 18000005  ...'d....}._....
 1860 f2160000 0ae70100 001f2914 ef000000  ..........).....
 1870 0d641800 000a3801 00001f98 19e31200  .d....8.........
 1880 000ad010 00001f99 1be31200 00059218  ................
 1890 00004c1a 84030000 10380ba8 18000028  ..L......8.....(
 18a0 103a1857 09000000 1508203c 03db0600  .:.W...... <....
 18b0 00cf1800 0003f107 0000203d 09ef0000  .......... =....
 18c0 00001d72 656d003e 09ef0000 0004000a  ...rem.>........
 18d0 dc060000 203f05a8 18000015 10204403  .... ?....... D.
 18e0 ba0b0000 02190000 03f10700 0020450e  ............. E.
 18f0 e3120000 001d7265 6d00460e e3120000  ......rem.F.....
 1900 08000abb 0b000020 4705db18 00001510  ....... G.......
 1910 204e03ea 0b000035 19000003 f1070000   N.....5........
 1920 204f130b 16000000 1d72656d 0050130b   O.......rem.P..
 1930 16000008 000aeb0b 00002051 050e1900  .......... Q....
 1940 00132d0e 000020b4 030f4e19 00000553  ..-... ...N....S
 1950 19000029 ef000000 67190000 018d1800  ...)....g.......
 1960 00018d18 00000004 220b0000 20de020c  ........"... ...
 1970 ef000000 7e190000 017e1900 00000583  ....~....~......
 1980 1900004d 079c0c00 0020e302 129c0c00  ...M..... ......
 1990 00ef0000 009f1900 00017e19 00000006  ..........~.....
 19a0 ec0e0000 20660f6f 120000b5 19000001  .... f.o........
 19b0 b9020000 0006f90e 00002069 0cef0000  .......... i....
 19c0 00cb1900 0001b902 00000006 6c000000  ............l...
 19d0 206c11e3 120000e1 19000001 b9020000   l..............
 19e0 0004b405 000020c0 030e7d00 00000c1a  ...... ...}.....
 19f0 0000018d 18000001 8d180000 012e0000  ................
 1a00 00012e00 00000141 19000000 4e646976  .......A....Ndiv
 1a10 0020e003 0ecf1800 00281a00 0001ef00  . .......(......
 1a20 000001ef 00000000 04000000 00200503  ............. ..
 1a30 0e3f1000 003f1a00 0001b902 00000004  .?...?..........
 1a40 37050000 20e2030f 02190000 5b1a0000  7... .......[...
 1a50 01e31200 0001e312 00000004 1f0e0000  ................
 1a60 2026040c ef000000 771a0000 01b90200   &......w.......
 1a70 00012e00 00000004 aa0a0000 2031040f  ............ 1..
 1a80 2e000000 981a0000 015b0d00 0001b902  .........[......
 1a90 0000012e 00000000 04980300 00202904  ............. ).
 1aa0 0cef0000 00b91a00 00015b0d 000001b9  ..........[.....
 1ab0 02000001 2e000000 0011f406 000020ca  .............. .
 1ac0 03da1a00 00017d00 0000012e 00000001  ......}.........
 1ad0 2e000000 01411900 00004f9f 0c000020  .....A....O.... 
 1ae0 fa020ded 1a000001 ef000000 001c7c05  ..............|.
 1af0 0000203d 020cef00 0000117b 05000020  .. =.......{... 
 1b00 3f020c1b 00000176 00000000 06f50c00  ?......v........
 1b10 0020760f 6f120000 271b0000 01b90200  . v.o...'.......
 1b20 0001271b 00000005 3f100000 09fb0500  ..'.....?.......
 1b30 0020d711 f2050000 e3120000 501b0000  . ..........P...
 1b40 01b90200 0001271b 000001ef 00000000  ......'.........
 1b50 09730100 0020db1a 6a010000 3a000000  .s... ..j...:...
 1b60 741b0000 01b90200 0001271b 000001ef  t.........'.....
 1b70 00000000 04da0000 00209b03 0cef0000  ......... ......
 1b80 008b1b00 0001b902 00000004 160e0000  ................
 1b90 2035040f 2e000000 ac1b0000 013f1000   5...........?..
 1ba0 0001a40d 0000012e 00000000 04da0400  ................
 1bb0 00202d04 0cef0000 00c81b00 00013f10  . -...........?.
 1bc0 00000160 0d000000 04360500 0020e603  ...`.....6... ..
 1bd0 1e351900 00e41b00 00010b16 0000010b  .5..............
 1be0 16000000 063c0500 00207124 0b160000  .....<... q$....
 1bf0 fa1b0000 01b90200 00000957 08000020  ...........W... 
 1c00 ee164e08 00000b16 00001e1c 000001b9  ..N.............
 1c10 02000001 271b0000 01ef0000 000009a8  ....'...........
 1c20 0e000020 f31f9f0e 00003716 0000421c  ... ......7...B.
 1c30 000001b9 02000001 271b0000 01ef0000  ........'.......
 1c40 0000060a 0e000020 7c0e9712 00005d1c  ....... |.....].
 1c50 000001b9 02000001 271b0000 0006970e  ........'.......
 1c60 0000207f 14df1500 00781c00 0001b902  .. ......x......
 1c70 00000127 1b000000 19cc0c00 0010210a  ...'..........!.
 1c80 10a01c00 00032d08 0000210c 0b751800  ......-...!..u..
 1c90 00000355 03000021 0d0ff600 00000800  ...U...!........
 1ca0 0aab0900 00210e03 781c0000 507b0000  .....!..x...P{..
 1cb0 00082b0e 1ee90600 0005b41c 0000051f  ..+.............
 1cc0 01000017 e3000000 d31c0000 183a0000  .............:..
 1cd0 00000005 ac1c0000 1ef80300 0005d81c  ................
 1ce0 00001e8b 0b000005 e21c0000 17e30000  ................
 1cf0 00fc1c00 00183a00 00001300 0acf0c00  ......:.........
 1d00 00225512 a01c0000 0dfc1c00 0005a602  ."U.............
 1d10 000011d1 05000022 5c03241d 0000010d  ......."\.$.....
 1d20 1d000000 06b30b00 0022b80c ef000000  ........."......
 1d30 3a1d0000 010d1d00 00000411 0e000022  :.............."
 1d40 5e030cef 00000051 1d000001 0d1d0000  ^......Q........
 1d50 0004e206 00002260 030cef00 0000681d  ......"`......h.
 1d60 0000010d 1d000000 06400100 0022ec0c  .........@..."..
 1d70 ef000000 7e1d0000 010d1d00 00000480  ....~...........
 1d80 09000022 3f020cef 00000095 1d000001  ..."?...........
 1d90 0d1d0000 0004f003 0000223d 030cef00  .........."=....
 1da0 0000b11d 0000010d 1d000001 b11d0000  ................
 1db0 0005fc1c 000004a5 09000022 8e020e3f  ..........."...?
 1dc0 100000d7 1d000001 3f100000 01ef0000  ........?.......
 1dd0 00010d1d 00000004 86090000 2208010e  ............"...
 1de0 0d1d0000 f31d0000 01b90200 0001b902  ................
 1df0 00000004 d70a0000 22e2020f 2e000000  ........".......
 1e00 191e0000 017d0000 00012e00 0000012e  .....}..........
 1e10 00000001 0d1d0000 00044206 0000220f  ..........B...".
 1e20 010e0d1d 00003a1e 000001b9 02000001  ......:.........
 1e30 b9020000 010d1d00 00000422 09000022  ..........."..."
 1e40 0b030cef 0000005b 1e000001 0d1d0000  .......[........
 1e50 01e31200 0001ef00 00000004 5c090000  ............\...
 1e60 2243030c ef000000 771e0000 010d1d00  "C......w.......
 1e70 0001771e 00000005 081d0000 046b0900  ..w..........k..
 1e80 00221103 11e31200 00931e00 00010d1d  ."..............
 1e90 00000004 81090000 2240020c ef000000  ........"@......
 1ea0 aa1e0000 010d1d00 00001c5f 08000022  ..........._..."
 1eb0 46020cef 00000011 9c080000 226e03c9  F..........."n..
 1ec0 1e000001 b9020000 0006d300 0000229e  ..............".
 1ed0 0cef0000 00df1e00 0001b902 00000006  ................
 1ee0 26080000 22a00cef 000000fa 1e000001  &..."...........
 1ef0 b9020000 01b90200 000011b1 0e000022  ..............."
 1f00 16030c1f 0000010d 1d000000 11280900  .............(..
 1f10 00224e01 231f0000 010d1d00 00013f10  ."N.#.........?.
 1f20 00000004 c1000000 2253010c ef000000  ........"S......
 1f30 491f0000 010d1d00 00013f10 000001ef  I.........?.....
 1f40 00000001 2e000000 0027b80d 000022c2  .........'....".
 1f50 0e0d1d00 00067508 000022d3 0e3f1000  ......u..."..?..
 1f60 006b1f00 00013f10 00000004 fc020000  .k....?.........
 1f70 22db020c ef000000 871f0000 01ef0000  "...............
 1f80 00010d1d 0000000a 41040000 23261b3a  ........A...#&.:
 1f90 0000000a 33080000 24301a9f 1f000005  ....3...$0......
 1fa0 70180000 065d0a00 00239f0c ef000000  p....]...#......
 1fb0 bf1f0000 017f0000 0001871f 00000006  ................
 1fc0 7b010000 24370f7f 000000da 1f000001  {...$7..........
 1fd0 7f000000 01931f00 0000067d 01000024  ...........}...$
 1fe0 3412931f 0000f01f 000001b9 02000000  4...............
 1ff0 065f0a00 00239b11 871f0000 06200000  ._...#....... ..
 2000 01b90200 00001091 0b000009 6f0a0000  ............o...
 2010 2559146f 0a00008d 1800002f 20000001  %Y.o......./ ...
 2020 8d180000 01ef0000 00012e00 00000009  ................
 2030 6f0a0000 25570e6f 0a00007d 00000053  o...%W.o...}...S
 2040 20000001 7d000000 01ef0000 00012e00   ...}...........
 2050 00000006 52060000 25a30cef 0000006e  ....R...%......n
 2060 20000001 b9020000 01b90200 00000430   ..............0
 2070 02000025 a3010e3f 10000085 20000001  ...%...?.... ...
 2080 ef000000 00049905 00002564 010e3f10  ..........%d..?.
 2090 0000a120 0000013f 10000001 b9020000  ... ...?........
 20a0 00068105 000025a6 0f2e0000 00c12000  ......%....... .
 20b0 00013f10 000001b9 02000001 2e000000  ..?.............
 20c0 0009560a 000025e4 14560a00 00b90200  ..V...%..V......
 20d0 00e02000 0001b902 000001ef 00000000  .. .............
 20e0 09560a00 0025e20e 560a0000 3f100000  .V...%..V...?...
 20f0 ff200000 013f1000 0001ef00 00000007  . ...?..........
 2100 b7020000 25310114 b7020000 b9020000  ....%1..........
 2110 1f210000 01b90200 0001b902 00000007  .!..............
 2120 b7020000 252f010e b7020000 3f100000  ....%/......?...
 2130 3f210000 013f1000 0001b902 00000009  ?!...?..........
 2140 7c030000 25ff147c 030000b9 0200005e  |...%..|.......^
 2150 21000001 b9020000 01ef0000 0000097c  !..............|
 2160 03000025 fd0e7c03 00003f10 00007d21  ...%..|...?...}!
 2170 0000013f 10000001 ef000000 0007180d  ...?............
 2180 0000254c 0114180d 0000b902 00009d21  ..%L...........!
 2190 000001b9 02000001 b9020000 0007180d  ................
 21a0 0000254a 010e180d 00003f10 0000bd21  ..%J......?....!
 21b0 0000013f 10000001 b9020000 00280103  ...?.........(..
 21c0 11be0200 0005910b 00000dc5 2100001f  ............!...
 21d0 980c0000 1fa10c00 001faa0c 000011cc  ................
 21e0 05000020 af02f021 0000017d 00000000  ... ...!...}....
 21f0 04450500 00226b01 0cef0000 00082200  .E..."k.......".
 2200 0001b902 00000f00 06660d00 00253d0e  .........f...%=.
 2210 7d000000 28220000 017d0000 0001ef00  }...("...}......
 2220 0000012e 00000000 04040400 0020a002  ............. ..
 2230 0e7d0000 003f2200 00012e00 00000010  .}...?".........
 2240 bd0b0000 05492200 00293f22 00005822  .....I"..)?"..X"
 2250 0000013f 22000000 51ca0b00 00652200  ...?"...Q....e".
 2260 007b2200 0052cd09 0000ca21 000053b1  .{"..R.....!..S.
 2270 08000016 6e244422 0000002a b40c0000  ....n$D"...*....
 2280 a3220000 0e890a00 00e30000 000e820f  ."..............
 2290 00005707 00002bb1 070000df 022a0620  ..W...+......*. 
 22a0 0000002a e10c0000 cf220000 0e820f00  ...*....."......
 22b0 00570700 002b2008 00003a02 2e062000  .W...+ ...:... .
 22c0 00545f5f 6300163a 023ae300 00000055  .T__c..:.:.....U
 22d0 c8090000 011505ef 00000069 13000000  ...........i....
 22e0 00000038 00000000 00000001 9c012300  ...8..........#.
 22f0 0056ae05 00000116 09ef0000 0002916c  .V.............l
 2300 0057f102 00000109 06e60c00 00091200  .W..............
 2310 00000000 00600100 00000000 00019c7f  .....`..........
 2320 23000058 4e000109 0fef0000 0002915c  #..XN..........\
 2330 20617272 000a0a7f 23000002 9168594b   arr....#....hYK
 2340 12000000 00000079 00000000 00000060  .......y.......`
 2350 23000020 69000c0d ef000000 02916000  #.. i.........`.
 2360 5ac41200 00000000 00490000 00000000  Z........I......
 2370 00206900 0e11ef00 00000291 64000005  . i.........d...
 2380 ef000000 00                          .....           
Contents of section .debug_abbrev:
 0000 01050049 13000002 08003a0b 3b0b390b  ...I......:.;.9.
 0010 18130000 030d0003 0e3a0b3b 0b390b49  .........:.;.9.I
 0020 13380b00 00042e01 3f19030e 3a0b3b05  .8......?...:.;.
 0030 390b4913 3c190113 0000050f 000b2108  9.I.<.........!.
 0040 49130000 062e013f 19030e3a 0b3b0b39  I......?...:.;.9
 0050 0b49133c 19011300 00072e01 3f19030e  .I.<........?...
 0060 3a0b3b05 390b6e0e 49133c19 01130000  :.;.9.n.I.<.....
 0070 0824000b 0b3e0b03 0e000009 2e013f19  .$...>........?.
 0080 030e3a0b 3b0b390b 6e0e4913 3c190113  ..:.;.9.n.I.<...
 0090 00000a16 00030e3a 0b3b0b39 0b491300  .......:.;.9.I..
 00a0 000b0500 49133419 00000c08 003a0b3b  ....I.4......:.;
 00b0 05390b18 1300000d 26004913 00000e2f  .9......&.I..../
 00c0 00030e49 1300000f 18000000 1010000b  ...I............
 00d0 21084913 0000112e 013f1903 0e3a0b3b  !.I......?...:.;
 00e0 0539210d 3c190113 0000122e 013f1903  .9!.<........?..
 00f0 0e3a210d 3b0b3921 076e0e32 21013c19  .:!.;.9!.n.2!.<.
 0100 64130113 00001316 00030e3a 0b3b0539  d..........:.;.9
 0110 0b491300 00140d00 030e3a21 023b2100  .I........:!.;!.
 0120 4913380b 00001513 010b0b3a 0b3b0b39  I.8........:.;.9
 0130 0b6e0e01 13000016 2e013f19 030e3a0b  .n........?...:.
 0140 3b0b390b 6e0e4913 3221013c 19641301  ;.9.n.I.2!.<.d..
 0150 13000017 01014913 01130000 18210049  ......I......!.I
 0160 132f0b00 00191301 030e0b0b 3a0b3b0b  ./..........:.;.
 0170 390b0113 00001a39 01030e3a 0b3b0b39  9......9...:.;.9
 0180 0b011300 001b3400 030e3a21 1a3b2130  ......4...:!.;!0
 0190 39211449 133c191c 21016c19 00001c2e  9!.I.<..!.l.....
 01a0 003f1903 0e3a0b3b 05390b49 133c1900  .?...:.;.9.I.<..
 01b0 001d0d00 03083a21 203b0b39 0b491338  ......:! ;.9.I.8
 01c0 0b00001e 1300030e 3c190000 1f340047  ........<....4.G
 01d0 13000020 34000308 3a21013b 0b390b49  ... 4...:!.;.9.I
 01e0 13021800 00210d00 030e3a21 053b0b39  .....!....:!.;.9
 01f0 0b491300 00223900 030e3a21 0c3b0539  .I..."9...:!.;.9
 0200 210d0000 232e013f 19030e3a 210d3b0b  !...#..?...:!.;.
 0210 39210c6e 0e3c1964 13011300 00242e01  9!.n.<.d.....$..
 0220 3f190308 3a210e3b 05392107 6e0e4913  ?...:!.;.9!.n.I.
 0230 3c190113 00002539 00030e3a 0b3b0b39  <.....%9...:.;.9
 0240 0b000026 0d00030e 3a21033b 05390b49  ...&....:!.;.9.I
 0250 1388010b 380b0000 272e003f 19030e3a  ....8...'..?...:
 0260 0b3b0b39 0b49133c 19000028 3a003a0b  .;.9.I.<...(:.:.
 0270 3b0b390b 18130000 29150149 13011300  ;.9.....)..I....
 0280 002a2e01 47130113 00002b05 00030e3a  .*..G.....+....:
 0290 21163b05 390b4913 00002c11 01250e13  !.;.9.I...,..%..
 02a0 0b031f1b 1f110112 07101700 002d1301  .............-..
 02b0 030e0b0b 3a0b3b0b 01130000 2e0f000b  ....:.;.........
 02c0 0b00002f 17010b0b 3a0b3b0b 390b0113  .../....:.;.9...
 02d0 00003024 000b0b3e 0b030800 00313901  ..0$...>.....19.
 02e0 03083a0b 3b05390b 01130000 32020103  ..:.;.9.....2...
 02f0 0e0b0b3a 0b3b0b39 0b011300 00332e01  ...:.;.9.....3..
 0300 3f19030e 3a0b3b0b 390b6e0e 3c196319  ?...:.;.9.n.<.c.
 0310 64130113 0000342e 013f1903 0e3a0b3b  d.....4..?...:.;
 0320 0b390b6e 0e49133c 19641301 13000035  .9.n.I.<.d.....5
 0330 2e013f19 030e3a0b 3b0b390b 6e0e4913  ..?...:.;.9.n.I.
 0340 320b3c19 63196413 01130000 362e013f  2.<.c.d.....6..?
 0350 19030e3a 0b3b0b39 0b6e0e49 13320b3c  ...:.;.9.n.I.2.<
 0360 19641300 00372e01 3f19030e 3a0b3b0b  .d...7..?...:.;.
 0370 390b6e0e 3c190000 382e013f 19030e3a  9.n.<...8..?...:
 0380 0b3b0b39 0b6e0e87 01193c19 01130000  .;.9.n....<.....
 0390 39020003 0e3c1900 003a1301 030e0b0b  9....<...:......
 03a0 3a0b3b05 390b0113 00003b2e 013f1903  :.;.9.....;..?..
 03b0 0e3a0b3b 05390b6e 0e3c1901 1300003c  .:.;.9.n.<.....<
 03c0 2e003f19 03083a0b 3b05390b 6e0e4913  ..?...:.;.9.n.I.
 03d0 3c190000 3d390003 0e3a0b3b 05390b89  <...=9...:.;.9..
 03e0 01190000 3e390003 083a0b3b 0b390b00  ....>9...:.;.9..
 03f0 003f3900 03083a0b 3b0b390b 89011900  .?9...:.;.9.....
 0400 00400201 030e3c19 01130000 41160003  .@....<.....A...
 0410 0e3a0b3b 0b390b49 13320b00 00422f00  .:.;.9.I.2...B/.
 0420 030e4913 1e190000 43340003 0e3a0b3b  ..I.....C4...:.;
 0430 0b390b6e 0e49133f 193c1900 00442e01  .9.n.I.?.<...D..
 0440 3f19030e 3a0b3b05 390b6e0e 49133c19  ?...:.;.9.n.I.<.
 0450 00004513 0103080b 0b3a0b3b 0b390b01  ..E......:.;.9..
 0460 13000046 3901030e 3a0b3b05 390b0113  ...F9...:.;.9...
 0470 0000472e 013f1903 083a0b3b 0b390b6e  ..G..?...:.;.9.n
 0480 0e49133c 19000048 13010b0b 88010b3a  .I.<...H.......:
 0490 0b3b0539 0b6e0e01 13000049 1600030e  .;.9.n.....I....
 04a0 3a0b3b05 390b4913 88010b00 004a3b00  :.;.9.I......J;.
 04b0 030e0000 4b42000b 0b491300 004c2600  ....KB...I...L&.
 04c0 00004d15 0000004e 2e013f19 03083a0b  ..M....N..?...:.
 04d0 3b05390b 49133c19 01130000 4f2e013f  ;.9.I.<.....O..?
 04e0 19030e3a 0b3b0539 0b870119 3c190113  ...:.;.9....<...
 04f0 00005016 00030e3a 0b3b0b39 0b000051  ..P....:.;.9...Q
 0500 2e014713 64130113 00005205 00030e49  ..G.d.....R....I
 0510 13341900 00530500 030e3a0b 3b0b390b  .4...S....:.;.9.
 0520 49130000 54050003 083a0b3b 05390b49  I...T....:.;.9.I
 0530 13000055 2e013f19 030e3a0b 3b0b390b  ...U..?...:.;.9.
 0540 49131101 12074018 7c190113 00005634  I.....@.|.....V4
 0550 00030e3a 0b3b0b39 0b491302 18000057  ...:.;.9.I.....W
 0560 2e013f19 030e3a0b 3b0b390b 6e0e1101  ..?...:.;.9.n...
 0570 12074018 7c190113 00005805 0003083a  ..@.|.....X....:
 0580 0b3b0b39 0b491302 18000059 0b011101  .;.9.I.....Y....
 0590 12070113 00005a0b 01110112 07000000  ......Z.........
Contents of section .debug_line:
 0000 b2010000 05000800 08010000 010101fb  ................
 0010 0e0d0001 01010100 00000100 00010101  ................
 0020 1f090000 00002b00 00005400 00007d00  ......+...T...}.
 0030 00009100 0000bb00 0000d400 0000ee00  ................
 0040 0000fb00 00000201 1f020f28 22000000  ...........("...
 0050 00220000 00001e01 00000029 01000001  .".........)....
 0060 32010000 023b0100 00023d01 00000249  2....;....=....I
 0070 01000002 52010000 024b0100 00026001  ....R....K....`.
 0080 00000367 01000004 73010000 037f0100  ...g....s.......
 0090 00058f01 0000059d 01000003 a5010000  ................
 00a0 06ad0100 0003b501 000003bc 01000003  ................
 00b0 c4010000 03cc0100 0005e801 000003d8  ................
 00c0 01000003 df010000 03e70100 0003f001  ................
 00d0 0000054c 02000007 fb010000 02070200  ...L............
 00e0 00051802 00000721 02000008 29020000  .......!....)...
 00f0 07320200 00023d02 00000745 02000008  .2....=....E....
 0100 54020000 075d0200 00076602 00000578  T....]....f....x
 0110 02000003 05120009 02091200 00000000  ................
 0120 001a052d e5051e58 0522f305 0b58050d  ...-...X."...X..
 0130 08830505 7405162f 05230820 052b0812  ....t../.#. .+..
 0140 05380820 05250812 050d3c05 0e58053a  .8. .%....<..X.:
 0150 e4051058 05050002 04032d05 16000204  ...X......-.....
 0160 014a0511 84050974 05300002 04032e05  .J.....t.0......
 0170 31000204 03580536 00020403 e4050900  1....X.6........
 0180 02040308 e4051a00 0204024a 05118305  ...........J....
 0190 0b088305 11089f05 09088305 01bb050c  ................
 01a0 3e0509bb 05057505 0d2f0510 9d050108  >.....u../......
 01b0 23020700 0101                        #.....          
Contents of section .debug_str:
 0000 67657465 6e76005f 5f646562 75670069  getenv.__debug.i
 0010 6e745f70 5f63735f 70726563 65646573  nt_p_cs_precedes
 0020 005f5a4e 53743135 5f5f6578 63657074  ._ZNSt15__except
 0030 696f6e5f 70747231 33657863 65707469  ion_ptr13excepti
 0040 6f6e5f70 74724334 45507600 77637378  on_ptrC4EPv.wcsx
 0050 66726d00 63686172 33325f74 007e6578  frm.char32_t.~ex
 0060 63657074 696f6e5f 70747200 61746f6c  ception_ptr.atol
 0070 005f7368 6f727462 7566005f 494f5f6c  ._shortbuf._IO_l
 0080 6f636b5f 74005f5a 53743465 6e646c49  ock_t._ZSt4endlI
 0090 63537431 31636861 725f7472 61697473  cSt11char_traits
 00a0 49634545 52537431 33626173 69635f6f  IcEERSt13basic_o
 00b0 73747265 616d4954 5f54305f 4553365f  streamIT_T0_ES6_
 00c0 00736574 76627566 0067705f 6f666673  .setvbuf.gp_offs
 00d0 65740072 656d6f76 65007379 7374656d  et.remove.system
 00e0 005f5a4e 53743131 63686172 5f747261  ._ZNSt11char_tra
 00f0 69747349 63453365 6f664576 00746d5f  itsIcE3eofEv.tm_
 0100 79646179 005f494f 5f627566 5f656e64  yday._IO_buf_end
 0110 005f5a4e 53743131 63686172 5f747261  ._ZNSt11char_tra
 0120 69747349 63453131 746f5f69 6e745f74  itsIcE11to_int_t
 0130 79706545 524b6300 5f5f6f66 665f7400  ypeERKc.__off_t.
 0140 66666c75 7368005f 5f69736f 6332335f  fflush.__isoc23_
 0150 76737773 63616e66 005f5f69 736f6332  vswscanf.__isoc2
 0160 335f7763 73746f6c 6c005f5f 69736f63  3_wcstoll.__isoc
 0170 32335f73 7472746f 756c0074 6f776374  23_strtoul.towct
 0180 72616e73 005f494f 5f777269 74655f65  rans._IO_write_e
 0190 6e64005f 5f676e75 5f637878 005f6672  nd.__gnu_cxx._fr
 01a0 65657265 735f6c69 7374005f 5f657863  eeres_list.__exc
 01b0 65707469 6f6e5f70 7472005f 5a4e4b53  eption_ptr._ZNKS
 01c0 7431355f 5f657863 65707469 6f6e5f70  t15__exception_p
 01d0 74723133 65786365 7074696f 6e5f7074  tr13exception_pt
 01e0 72637662 4576005f 5f696e74 33325f74  rcvbEv.__int32_t
 01f0 006c656e 67746800 77636861 725f7400  .length.wchar_t.
 0200 5f5a4e53 7431355f 5f657863 65707469  _ZNSt15__excepti
 0210 6f6e5f70 74723133 65786365 7074696f  on_ptr13exceptio
 0220 6e5f7074 72347377 61704552 53305f00  n_ptr4swapERS0_.
 0230 73747265 72726f72 005f5a4e 53743135  strerror._ZNSt15
 0240 5f5f6578 63657074 696f6e5f 70747231  __exception_ptr1
 0250 33657863 65707469 6f6e5f70 74723130  3exception_ptr10
 0260 5f4d5f72 656c6561 73654576 005f5f73  _M_releaseEv.__s
 0270 77617070 61626c65 5f646574 61696c73  wappable_details
 0280 005f6d61 726b6572 7300746d 5f6d6461  ._markers.tm_mda
 0290 79006f70 65726174 6f723c3c 203c7374  y.operator<< <st
 02a0 643a3a63 6861725f 74726169 74733c63  d::char_traits<c
 02b0 6861723e 203e0073 74727062 726b005f  har> >.strpbrk._
 02c0 5a4e395f 5f676e75 5f637878 33646976  ZN9__gnu_cxx3div
 02d0 45787800 696e745f 705f7365 705f6279  Exx.int_p_sep_by
 02e0 5f737061 6365006e 756c6c70 74725f74  _space.nullptr_t
 02f0 0066756e 63005f5f 6f707300 756e6765  .func.__ops.unge
 0300 74630077 63736370 79005f5f 636f756e  tc.wcscpy.__coun
 0310 74005f5a 4e537431 31636861 725f7472  t._ZNSt11char_tr
 0320 61697473 49634537 6e6f745f 656f6645  aitsIcE7not_eofE
 0330 524b6900 5f5f6d61 785f616c 69676e5f  RKi.__max_align_
 0340 6c640077 63736361 74006c63 6f6e7600  ld.wcscat.lconv.
 0350 73776170 005f5f73 74617465 005f666c  swap.__state._fl
 0360 61677300 6c6f6361 6c65636f 6e760074  ags.localeconv.t
 0370 6d5f7965 61720063 6f707900 73747272  m_year.copy.strr
 0380 63687200 5f5f676e 755f6465 62756700  chr.__gnu_debug.
 0390 6d627274 6f776300 6d62746f 77630074  mbrtowc.mbtowc.t
 03a0 6d5f6d6f 6e005f49 4f5f7361 76655f65  m_mon._IO_save_e
 03b0 6e64005f 5a4e5374 31355f5f 65786365  nd._ZNSt15__exce
 03c0 7074696f 6e5f7074 72313365 78636570  ption_ptr13excep
 03d0 74696f6e 5f707472 43344544 6e00666c  tion_ptrC4EDn.fl
 03e0 6f617400 5f637572 5f636f6c 756d6e00  oat._cur_column.
 03f0 66676574 706f7300 5f494f5f 636f6465  fgetpos._IO_code
 0400 63767400 6d616c6c 6f63005f 5f6d6178  cvt.malloc.__max
 0410 5f616c69 676e5f6c 6c005f5f 73776170  _align_ll.__swap
 0420 7061626c 655f7769 74685f64 65746169  pable_with_detai
 0430 6c730031 316d6178 5f616c69 676e5f74  ls.11max_align_t
 0440 00776374 7970655f 74006c6f 6e67206c  .wctype_t.long l
 0450 6f6e6720 756e7369 676e6564 20696e74  ong unsigned int
 0460 005f5a53 74313772 65746872 6f775f65  ._ZSt17rethrow_e
 0470 78636570 74696f6e 4e537431 355f5f65  xceptionNSt15__e
 0480 78636570 74696f6e 5f707472 31336578  xception_ptr13ex
 0490 63657074 696f6e5f 70747245 005f5a4e  ception_ptrE._ZN
 04a0 53743135 5f5f6578 63657074 696f6e5f  St15__exception_
 04b0 70747231 33657863 65707469 6f6e5f70  ptr13exception_p
 04c0 74724334 454f5330 5f00696e 745f6e5f  trC4EOS0_.int_n_
 04d0 7369676e 5f706f73 6e007763 746f6d62  sign_posn.wctomb
 04e0 005f5f46 494c4500 5f494f5f 6261636b  .__FILE._IO_back
 04f0 75705f62 61736500 65715f69 6e745f74  up_base.eq_int_t
 0500 79706500 746f5f69 6e745f74 79706500  ype.to_int_type.
 0510 77637274 6f6d6200 5f5a5374 34636f75  wcrtomb._ZSt4cou
 0520 74005f4d 5f657863 65707469 6f6e5f6f  t._M_exception_o
 0530 626a6563 74006c6c 64697600 61746f6c  bject.lldiv.atol
 0540 6c007666 77707269 6e746600 5f5a4e53  l.vfwprintf._ZNS
 0550 74313163 6861725f 74726169 74734963  t11char_traitsIc
 0560 45313274 6f5f6368 61725f74 79706545  E12to_char_typeE
 0570 524b6900 73697a65 5f740073 72616e64  RKi.size_t.srand
 0580 00737472 7866726d 005f5f69 736f6332  .strxfrm.__isoc2
 0590 335f7763 73746f6c 00737472 746f6b00  3_wcstol.strtok.
 05a0 5f494f5f 72656164 5f626173 65006e6c  _IO_read_base.nl
 05b0 6f6f7000 62736561 72636800 696e745f  oop.bsearch.int_
 05c0 66726163 5f646967 69747300 66726565  frac_digits.free
 05d0 00636c65 61726572 72006677 69646500  .clearerr.fwide.
 05e0 696e745f 6e5f6373 5f707265 63656465  int_n_cs_precede
 05f0 73005f5f 69736f63 32335f73 7472746f  s.__isoc23_strto
 0600 6c006669 6e640062 61736963 5f6f7374  l.find.basic_ost
 0610 7265616d 3c636861 722c2073 74643a3a  ream<char, std::
 0620 63686172 5f747261 6974733c 63686172  char_traits<char
 0630 3e203e00 6e656761 74697665 5f736967  > >.negative_sig
 0640 6e006672 656f7065 6e005f5f 76616c75  n.freopen.__valu
 0650 65007374 72636f6c 6c005f5f 69736f63  e.strcoll.__isoc
 0660 32335f76 77736361 6e66005f 5a4e5374  23_vwscanf._ZNSt
 0670 31316368 61725f74 72616974 73496345  11char_traitsIcE
 0680 3466696e 6445504b 636d5253 315f006d  4findEPKcmRS1_.m
 0690 6f6e5f64 6563696d 616c5f70 6f696e74  on_decimal_point
 06a0 005f5a4e 53743135 5f5f6578 63657074  ._ZNSt15__except
 06b0 696f6e5f 70747234 73776170 45524e53  ion_ptr4swapERNS
 06c0 5f313365 78636570 74696f6e 5f707472  _13exception_ptr
 06d0 4553315f 005f6d6f 64650035 6469765f  ES1_._mode.5div_
 06e0 74006665 72726f72 005f494f 5f6d6172  t.ferror._IO_mar
 06f0 6b657200 71736f72 74005f49 4f5f7772  ker.qsort._IO_wr
 0700 6974655f 62617365 00474e55 20432b2b  ite_base.GNU C++
 0710 31372031 332e332e 30202d6d 74756e65  17 13.3.0 -mtune
 0720 3d67656e 65726963 202d6d61 7263683d  =generic -march=
 0730 7838362d 3634202d 67202d66 6173796e  x86-64 -g -fasyn
 0740 6368726f 6e6f7573 2d756e77 696e642d  chronous-unwind-
 0750 7461626c 6573202d 66737461 636b2d70  tables -fstack-p
 0760 726f7465 63746f72 2d737472 6f6e6720  rotector-strong 
 0770 2d667374 61636b2d 636c6173 682d7072  -fstack-clash-pr
 0780 6f746563 74696f6e 202d6663 662d7072  otection -fcf-pr
 0790 6f746563 74696f6e 005f5f69 736f6332  otection.__isoc2
 07a0 335f7763 73746f75 6c6c005f 5f776368  3_wcstoull.__wch
 07b0 005f5f6f 73005f5a 4e537431 355f5f65  .__os._ZNSt15__e
 07c0 78636570 74696f6e 5f707472 31336578  xception_ptr13ex
 07d0 63657074 696f6e5f 70747244 34457600  ception_ptrD4Ev.
 07e0 5f5a4e53 6f6c7345 50465253 6f535f45  _ZNSolsEPFRSoS_E
 07f0 0071756f 74007265 675f7361 76655f61  .quot.reg_save_a
 0800 72656100 5f5f696e 74313238 20756e73  rea.__int128 uns
 0810 69676e65 64006d62 7372746f 77637300  igned.mbsrtowcs.
 0820 5f5f6f75 74007265 6e616d65 005f5f70  __out.rename.__p
 0830 6f730077 63747261 6e735f74 005f5f69  os.wctrans_t.__i
 0840 736f6332 335f6677 7363616e 66005f5f  soc23_fwscanf.__
 0850 69736f63 32335f73 7472746f 6c6c0067  isoc23_strtoll.g
 0860 65746368 61720077 6373746f 66007763  etchar.wcstof.wc
 0870 7373706e 00746d70 6e616d00 6f766572  sspn.tmpnam.over
 0880 666c6f77 5f617267 5f617265 61006c6f  flow_arg_area.lo
 0890 6e67206c 6f6e6720 696e7400 70657272  ng long int.perr
 08a0 6f72005f 494f5f73 6176655f 62617365  or._IO_save_base
 08b0 005f5f70 66006f70 65726174 6f723c3c  .__pf.operator<<
 08c0 00707574 77636861 72006d6f 6e5f6772  .putwchar.mon_gr
 08d0 6f757069 6e67005f 5a4e5374 31316368  ouping._ZNSt11ch
 08e0 61725f74 72616974 73496345 36617373  ar_traitsIcE6ass
 08f0 69676e45 5263524b 63005f5f 63787831  ignERcRKc.__cxx1
 0900 31006670 75747763 00666765 74776300  1.fputwc.fgetwc.
 0910 63686172 5f747261 6974733c 63686172  char_traits<char
 0920 3e006673 65656b00 73657462 75660066  >.fseek.setbuf.f
 0930 67657477 73006f70 65726174 6f723d00  getws.operator=.
 0940 5f4d5f67 6574005f 66726565 7265735f  _M_get._freeres_
 0950 62756600 636f6d70 61726500 66736574  buf.compare.fset
 0960 706f7300 61737369 676e0066 74656c6c  pos.assign.ftell
 0970 005f5f70 61643500 756e6765 74776300  .__pad5.ungetwc.
 0980 66676574 6300666f 70656e00 5f5a4e53  fgetc.fopen._ZNS
 0990 6f6c7345 69005f76 7461626c 655f6f66  olsEi._vtable_of
 09a0 66736574 00666765 7473005f 5f66706f  fset.fgets.__fpo
 09b0 735f7400 6c6f6e67 20646f75 626c6500  s_t.long double.
 09c0 77637363 6f6c6c00 6d61696e 00746869  wcscoll.main.thi
 09d0 73006670 75747773 005f5a4e 53743131  s.fputws._ZNSt11
 09e0 63686172 5f747261 69747349 6345346d  char_traitsIcE4m
 09f0 6f766545 5063504b 636d005f 5a4e5374  oveEPcPKcm._ZNSt
 0a00 31355f5f 65786365 7074696f 6e5f7074  15__exception_pt
 0a10 72313365 78636570 74696f6e 5f707472  r13exception_ptr
 0a20 43344576 00767770 72696e74 6600746d  C4Ev.vwprintf.tm
 0a30 5f697364 73740072 65746872 6f775f65  _isdst.rethrow_e
 0a40 78636570 74696f6e 005f494f 5f726561  xception._IO_rea
 0a50 645f656e 64007374 72636872 00697377  d_end.strchr.isw
 0a60 63747970 65006d62 73696e69 7400776d  ctype.mbsinit.wm
 0a70 656d6368 72007368 6f727420 696e7400  emchr.short int.
 0a80 5f5f6465 7461696c 005f4368 61725400  __detail._CharT.
 0a90 77637372 746f6d62 7300696e 745f6375  wcsrtombs.int_cu
 0aa0 72725f73 796d626f 6c006d62 73746f77  rr_symbol.mbstow
 0ab0 6373005f 5f637861 5f657863 65707469  cs.__cxa_excepti
 0ac0 6f6e5f74 79706500 6d62726c 656e0077  on_type.mbrlen.w
 0ad0 6d656d63 70790066 72656164 00747970  memcpy.fread.typ
 0ae0 655f696e 666f005f 5a4e5374 31355f5f  e_info._ZNSt15__
 0af0 65786365 7074696f 6e5f7074 72313365  exception_ptr13e
 0b00 78636570 74696f6e 5f707472 6153454f  xception_ptraSEO
 0b10 53305f00 31315f5f 6d627374 6174655f  S0_.11__mbstate_
 0b20 74006174 65786974 005f5f6f 73747265  t.atexit.__ostre
 0b30 616d5f74 79706500 5f5f6973 6f633233  am_type.__isoc23
 0b40 5f737773 63616e66 00776373 72636872  _swscanf.wcsrchr
 0b50 00747970 65646566 205f5f76 615f6c69  .typedef __va_li
 0b60 73745f74 6167205f 5f76615f 6c697374  st_tag __va_list
 0b70 5f746167 00746f5f 63686172 5f747970  _tag.to_char_typ
 0b80 65006765 74776368 6172005f 494f5f77  e.getwchar._IO_w
 0b90 6964655f 64617461 005f5f77 63686200  ide_data.__wchb.
 0ba0 696e745f 6e5f7365 705f6279 5f737061  int_n_sep_by_spa
 0bb0 63650066 636c6f73 6500366c 6469765f  ce.fclose.6ldiv_
 0bc0 74007763 736e636d 70005f5a 4e537431  t.wcsncmp._ZNSt1
 0bd0 31636861 725f7472 61697473 49634532  1char_traitsIcE2
 0be0 6c744552 4b635332 5f00376c 6c646976  ltERKcS2_.7lldiv
 0bf0 5f740066 705f6f66 66736574 00776373  _t.fp_offset.wcs
 0c00 6674696d 6500706f 73697469 76655f73  ftime.positive_s
 0c10 69676e00 77637373 7472005f 4d5f6164  ign.wcsstr._M_ad
 0c20 64726566 005f5a4e 53743131 63686172  dref._ZNSt11char
 0c30 5f747261 69747349 63453131 65715f69  _traitsIcE11eq_i
 0c40 6e745f74 79706545 524b6953 325f006f  nt_typeERKiS2_.o
 0c50 70657261 746f7220 626f6f6c 005f5a4e  perator bool._ZN
 0c60 4b537431 355f5f65 78636570 74696f6e  KSt15__exception
 0c70 5f707472 31336578 63657074 696f6e5f  _ptr13exception_
 0c80 70747232 305f5f63 78615f65 78636570  ptr20__cxa_excep
 0c90 74696f6e 5f747970 65457600 61745f71  tion_typeEv.at_q
 0ca0 7569636b 5f657869 74005f5a 4e537431  uick_exit._ZNSt1
 0cb0 31636861 725f7472 61697473 49634536  1char_traitsIcE6
 0cc0 61737369 676e4550 636d6300 5f475f66  assignEPcmc._G_f
 0cd0 706f735f 7400776d 656d6d6f 76650077  pos_t.wmemmove.w
 0ce0 63736c65 6e005f5a 3466756e 6369005f  cslen._Z4funci._
 0cf0 6c6f636b 00737472 746f6400 5f6f6c64  lock.strtod._old
 0d00 5f6f6666 73657400 5f494f5f 46494c45  _offset._IO_FILE
 0d10 0077696e 745f7400 73747273 7472006e  .wint_t.strstr.n
 0d20 6f745f65 6f66005f 5f69736f 6332335f  ot_eof.__isoc23_
 0d30 77736361 6e660077 6373746f 64007763  wscanf.wcstod.wc
 0d40 73706272 6b00746d 5f6d696e 00776373  spbrk.tm_min.wcs
 0d50 746f6b00 746d5f7a 6f6e6500 5f5f696e  tok.tm_zone.__in
 0d60 74313238 00776d65 6d736574 00736574  t128.wmemset.set
 0d70 6c6f6361 6c65005f 5a4e5374 31316368  locale._ZNSt11ch
 0d80 61725f74 72616974 73496345 366c656e  ar_traitsIcE6len
 0d90 67746845 504b6300 756e7369 676e6564  gthEPKc.unsigned
 0da0 20636861 72005f5f 69736f63 32335f76   char.__isoc23_v
 0db0 66777363 616e6600 746d7066 696c6500  fwscanf.tmpfile.
 0dc0 5f494f5f 77726974 655f7074 72005f5f  _IO_write_ptr.__
 0dd0 696e7465 6765725f 746f5f63 68617273  integer_to_chars
 0de0 5f69735f 756e7369 676e6564 005f4d5f  _is_unsigned._M_
 0df0 72656c65 61736500 6465636c 74797065  release.decltype
 0e00 286e756c 6c707472 29007374 72746f66  (nullptr).strtof
 0e10 0066656f 66007763 73746f6d 6273006d  .feof.wcstombs.m
 0e20 626c656e 006f7374 7265616d 005f5f63  blen.ostream.__c
 0e30 6f6d7061 725f666e 5f740077 6373746f  ompar_fn_t.wcsto
 0e40 6c640077 63746f62 00637572 72656e63  ld.wctob.currenc
 0e50 795f7379 6d626f6c 00746d5f 77646179  y_symbol.tm_wday
 0e60 005f5a4e 53743135 5f5f6578 63657074  ._ZNSt15__except
 0e70 696f6e5f 70747231 33657863 65707469  ion_ptr13excepti
 0e80 6f6e5f70 74724334 45524b53 305f005f  on_ptrC4ERKS0_._
 0e90 66696c65 6e6f0073 7472746f 6c64005f  fileno.strtold._
 0ea0 5f69736f 6332335f 73747274 6f756c6c  _isoc23_strtoull
 0eb0 00726577 696e6400 746d5f68 6f757200  .rewind.tm_hour.
 0ec0 6d6f6e5f 74686f75 73616e64 735f7365  mon_thousands_se
 0ed0 70007368 6f727420 756e7369 676e6564  p.short unsigned
 0ee0 20696e74 00746d5f 73656300 61746f66   int.tm_sec.atof
 0ef0 00776373 6373706e 0061746f 69005f5a  .wcscspn.atoi._Z
 0f00 4e4b5374 31355f5f 65786365 7074696f  NKSt15__exceptio
 0f10 6e5f7074 72313365 78636570 74696f6e  n_ptr13exception
 0f20 5f707472 365f4d5f 67657445 76005f5a  _ptr6_M_getEv._Z
 0f30 4e537431 355f5f65 78636570 74696f6e  NSt15__exception
 0f40 5f707472 31336578 63657074 696f6e5f  _ptr13exception_
 0f50 70747261 5345524b 53305f00 5f494f5f  ptraSERKS0_._IO_
 0f60 72656164 5f707472 00776373 6e637079  read_ptr.wcsncpy
 0f70 005f5f69 736f6332 335f7763 73746f75  .__isoc23_wcstou
 0f80 6c005f54 72616974 73005f5a 4e537431  l._Traits._ZNSt1
 0f90 31636861 725f7472 61697473 49634534  1char_traitsIcE4
 0fa0 636f7079 45506350 4b636d00 77637363  copyEPcPKcm.wcsc
 0fb0 6d700077 63736e63 61740074 6d5f676d  mp.wcsncat.tm_gm
 0fc0 746f6666 005f6368 61696e00 77637363  toff._chain.wcsc
 0fd0 68720063 68617231 365f7400 5f5a4e53  hr.char16_t._ZNS
 0fe0 7431355f 5f657863 65707469 6f6e5f70  t15__exception_p
 0ff0 74723133 65786365 7074696f 6e5f7074  tr13exception_pt
 1000 72395f4d 5f616464 72656645 76007673  r9_M_addrefEv.vs
 1010 77707269 6e746600 5f666c61 67733200  wprintf._flags2.
 1020 5f5a4e53 74313163 6861725f 74726169  _ZNSt11char_trai
 1030 74734963 4537636f 6d706172 6545504b  tsIcE7compareEPK
 1040 6353325f 6d00656e 646c3c63 6861722c  cS2_m.endl<char,
 1050 20737464 3a3a6368 61725f74 72616974   std::char_trait
 1060 733c6368 61723e20 3e00696e 745f705f  s<char> >.int_p_
 1070 7369676e 5f706f73 6e005f5a 4e537431  sign_posn._ZNSt1
 1080 31636861 725f7472 61697473 49634532  1char_traitsIcE2
 1090 65714552 4b635332 5f005f5a 53746c73  eqERKcS2_._ZStls
 10a0 49537431 31636861 725f7472 61697473  ISt11char_traits
 10b0 49634545 52537431 33626173 69635f6f  IcEERSt13basic_o
 10c0 73747265 616d4963 545f4553 355f6300  streamIcT_ES5_c.
 10d0 5f5f6f66 6636345f 74005f75 6e757365  __off64_t._unuse
 10e0 6432005f 494f5f62 75665f62 61736500  d2._IO_buf_base.
 10f0 776d656d 636d7000                    wmemcmp.        
Contents of section .debug_line_str:
 0000 2f686f6d 652f7961 6e616d69 30363234  /home/yanami0624
 0010 2f436861 6d705369 6d2f6d79 74657374  /ChampSim/mytest
 0020 73007465 73742e63 7070002f 7573722f  s.test.cpp./usr/
 0030 6c69622f 6763632f 7838365f 36342d6c  lib/gcc/x86_64-l
 0040 696e7578 2d676e75 2f31332f 696e636c  inux-gnu/13/incl
 0050 75646500 2f757372 2f696e63 6c756465  ude./usr/include
 0060 2f783836 5f36342d 6c696e75 782d676e  /x86_64-linux-gn
 0070 752f6269 74732f74 79706573 002f7573  u/bits/types./us
 0080 722f696e 636c7564 652f632b 2b2f3133  r/include/c++/13
 0090 002f7573 722f696e 636c7564 652f7838  ./usr/include/x8
 00a0 365f3634 2d6c696e 75782d67 6e752f63  6_64-linux-gnu/c
 00b0 2b2b2f31 332f6269 7473002f 7573722f  ++/13/bits./usr/
 00c0 696e636c 7564652f 632b2b2f 31332f62  include/c++/13/b
 00d0 69747300 2f757372 2f696e63 6c756465  its./usr/include
 00e0 2f632b2b 2f31332f 64656275 67002f75  /c++/13/debug./u
 00f0 73722f69 6e636c75 6465002f 7573722f  sr/include./usr/
 0100 696e636c 7564652f 7838365f 36342d6c  include/x86_64-l
 0110 696e7578 2d676e75 2f626974 73003c62  inux-gnu/bits.<b
 0120 75696c74 2d696e3e 00737464 6465662e  uilt-in>.stddef.
 0130 68007769 6e745f74 2e68005f 5f6d6273  h.wint_t.h.__mbs
 0140 74617465 5f742e68 005f5f46 494c452e  tate_t.h.__FILE.
 0150 68007374 72756374 5f46494c 452e6800  h.struct_FILE.h.
 0160 63776368 61720063 2b2b636f 6e666967  cwchar.c++config
 0170 2e680074 7970655f 74726169 74730065  .h.type_traits.e
 0180 78636570 74696f6e 5f707472 2e680063  xception_ptr.h.c
 0190 6861725f 74726169 74732e68 00636c6f  har_traits.h.clo
 01a0 63616c65 00646562 75672e68 00637374  cale.debug.h.cst
 01b0 646c6962 00637374 64696f00 63737464  dlib.cstdio.cstd
 01c0 64656600 63776374 79706500 6f737472  def.cwctype.ostr
 01d0 65616d2e 74636300 696f7366 77640063  eam.tcc.iosfwd.c
 01e0 73747269 6e670069 6f737472 65616d00  string.iostream.
 01f0 63686172 636f6e76 2e680073 74727563  charconv.h.struc
 0200 745f746d 2e680070 72656465 66696e65  t_tm.h.predefine
 0210 645f6f70 732e6800 6c6f6361 6c652e68  d_ops.h.locale.h
 0220 00747970 65732e68 00737464 6c69622e  .types.h.stdlib.
 0230 68005f5f 66706f73 5f742e68 00737464  h.__fpos_t.h.std
 0240 696f2e68 00776374 7970652d 77636861  io.h.wctype-wcha
 0250 722e6800 77637479 70652e68 00737472  r.h.wctype.h.str
 0260 696e672e 68006d65 6d6f7279 5f726573  ing.h.memory_res
 0270 6f757263 652e6800 73797374 656d5f65  ource.h.system_e
 0280 72726f72 00                          rror.           

Disassembly of section .init:

0000000000001000 <_init>:
    1000:	f3 0f 1e fa          	endbr64
    1004:	48 83 ec 08          	sub    $0x8,%rsp
    1008:	48 8b 05 e1 2f 00 00 	mov    0x2fe1(%rip),%rax        # 3ff0 <__gmon_start__@Base>
    100f:	48 85 c0             	test   %rax,%rax
    1012:	74 02                	je     1016 <_init+0x16>
    1014:	ff d0                	call   *%rax
    1016:	48 83 c4 08          	add    $0x8,%rsp
    101a:	c3                   	ret

Disassembly of section .plt:

0000000000001020 <.plt>:
    1020:	ff 35 62 2f 00 00    	push   0x2f62(%rip)        # 3f88 <_GLOBAL_OFFSET_TABLE_+0x8>
    1026:	ff 25 64 2f 00 00    	jmp    *0x2f64(%rip)        # 3f90 <_GLOBAL_OFFSET_TABLE_+0x10>
    102c:	0f 1f 40 00          	nopl   0x0(%rax)
    1030:	f3 0f 1e fa          	endbr64
    1034:	68 00 00 00 00       	push   $0x0
    1039:	e9 e2 ff ff ff       	jmp    1020 <_init+0x20>
    103e:	66 90                	xchg   %ax,%ax
    1040:	f3 0f 1e fa          	endbr64
    1044:	68 01 00 00 00       	push   $0x1
    1049:	e9 d2 ff ff ff       	jmp    1020 <_init+0x20>
    104e:	66 90                	xchg   %ax,%ax
    1050:	f3 0f 1e fa          	endbr64
    1054:	68 02 00 00 00       	push   $0x2
    1059:	e9 c2 ff ff ff       	jmp    1020 <_init+0x20>
    105e:	66 90                	xchg   %ax,%ax
    1060:	f3 0f 1e fa          	endbr64
    1064:	68 03 00 00 00       	push   $0x3
    1069:	e9 b2 ff ff ff       	jmp    1020 <_init+0x20>
    106e:	66 90                	xchg   %ax,%ax
    1070:	f3 0f 1e fa          	endbr64
    1074:	68 04 00 00 00       	push   $0x4
    1079:	e9 a2 ff ff ff       	jmp    1020 <_init+0x20>
    107e:	66 90                	xchg   %ax,%ax
    1080:	f3 0f 1e fa          	endbr64
    1084:	68 05 00 00 00       	push   $0x5
    1089:	e9 92 ff ff ff       	jmp    1020 <_init+0x20>
    108e:	66 90                	xchg   %ax,%ax
    1090:	f3 0f 1e fa          	endbr64
    1094:	68 06 00 00 00       	push   $0x6
    1099:	e9 82 ff ff ff       	jmp    1020 <_init+0x20>
    109e:	66 90                	xchg   %ax,%ax

Disassembly of section .plt.got:

00000000000010a0 <__cxa_finalize@plt>:
    10a0:	f3 0f 1e fa          	endbr64
    10a4:	ff 25 26 2f 00 00    	jmp    *0x2f26(%rip)        # 3fd0 <__cxa_finalize@GLIBC_2.2.5>
    10aa:	66 0f 1f 44 00 00    	nopw   0x0(%rax,%rax,1)

Disassembly of section .plt.sec:

00000000000010b0 <printf@plt>:
    10b0:	f3 0f 1e fa          	endbr64
    10b4:	ff 25 de 2e 00 00    	jmp    *0x2ede(%rip)        # 3f98 <printf@GLIBC_2.2.5>
    10ba:	66 0f 1f 44 00 00    	nopw   0x0(%rax,%rax,1)

00000000000010c0 <memset@plt>:
    10c0:	f3 0f 1e fa          	endbr64
    10c4:	ff 25 d6 2e 00 00    	jmp    *0x2ed6(%rip)        # 3fa0 <memset@GLIBC_2.2.5>
    10ca:	66 0f 1f 44 00 00    	nopw   0x0(%rax,%rax,1)

00000000000010d0 <_ZNSolsEPFRSoS_E@plt>:
    10d0:	f3 0f 1e fa          	endbr64
    10d4:	ff 25 ce 2e 00 00    	jmp    *0x2ece(%rip)        # 3fa8 <_ZNSolsEPFRSoS_E@GLIBCXX_3.4>
    10da:	66 0f 1f 44 00 00    	nopw   0x0(%rax,%rax,1)

00000000000010e0 <_ZStlsISt11char_traitsIcEERSt13basic_ostreamIcT_ES5_c@plt>:
    10e0:	f3 0f 1e fa          	endbr64
    10e4:	ff 25 c6 2e 00 00    	jmp    *0x2ec6(%rip)        # 3fb0 <_ZStlsISt11char_traitsIcEERSt13basic_ostreamIcT_ES5_c@GLIBCXX_3.4>
    10ea:	66 0f 1f 44 00 00    	nopw   0x0(%rax,%rax,1)

00000000000010f0 <free@plt>:
    10f0:	f3 0f 1e fa          	endbr64
    10f4:	ff 25 be 2e 00 00    	jmp    *0x2ebe(%rip)        # 3fb8 <free@GLIBC_2.2.5>
    10fa:	66 0f 1f 44 00 00    	nopw   0x0(%rax,%rax,1)

0000000000001100 <malloc@plt>:
    1100:	f3 0f 1e fa          	endbr64s
    1104:	ff 25 b6 2e 00 00    	jmp    *0x2eb6(%rip)        # 3fc0 <malloc@GLIBC_2.2.5>
    110a:	66 0f 1f 44 00 00    	nopw   0x0(%rax,%rax,1)

0000000000001110 <_ZNSolsEi@plt>:
    1110:	f3 0f 1e fa          	endbr64
    1114:	ff 25 ae 2e 00 00    	jmp    *0x2eae(%rip)        # 3fc8 <_ZNSolsEi@GLIBCXX_3.4>
    111a:	66 0f 1f 44 00 00    	nopw   0x0(%rax,%rax,1)

Disassembly of section .text:

0000000000001120 <_start>:
    1120:	f3 0f 1e fa          	endbr64
    1124:	31 ed                	xor    %ebp,%ebp
    1126:	49 89 d1             	mov    %rdx,%r9
    1129:	5e                   	pop    %rsi
    112a:	48 89 e2             	mov    %rsp,%rdx
    112d:	48 83 e4 f0          	and    $0xfffffffffffffff0,%rsp
    1131:	50                   	push   %rax
    1132:	54                   	push   %rsp
    1133:	45 31 c0             	xor    %r8d,%r8d
    1136:	31 c9                	xor    %ecx,%ecx
    1138:	48 8d 3d 2a 02 00 00 	lea    0x22a(%rip),%rdi        # 1369 <main>
    113f:	ff 15 9b 2e 00 00    	call   *0x2e9b(%rip)        # 3fe0 <__libc_start_main@GLIBC_2.34>
    1145:	f4                   	hlt
    1146:	66 2e 0f 1f 84 00 00 	cs nopw 0x0(%rax,%rax,1)
    114d:	00 00 00 

0000000000001150 <deregister_tm_clones>:
    1150:	48 8d 3d b9 2e 00 00 	lea    0x2eb9(%rip),%rdi        # 4010 <__TMC_END__>
    1157:	48 8d 05 b2 2e 00 00 	lea    0x2eb2(%rip),%rax        # 4010 <__TMC_END__>
    115e:	48 39 f8             	cmp    %rdi,%rax
    1161:	74 15                	je     1178 <deregister_tm_clones+0x28>
    1163:	48 8b 05 7e 2e 00 00 	mov    0x2e7e(%rip),%rax        # 3fe8 <_ITM_deregisterTMCloneTable@Base>
    116a:	48 85 c0             	test   %rax,%rax
    116d:	74 09                	je     1178 <deregister_tm_clones+0x28>
    116f:	ff e0                	jmp    *%rax
    1171:	0f 1f 80 00 00 00 00 	nopl   0x0(%rax)
    1178:	c3                   	ret
    1179:	0f 1f 80 00 00 00 00 	nopl   0x0(%rax)

0000000000001180 <register_tm_clones>:
    1180:	48 8d 3d 89 2e 00 00 	lea    0x2e89(%rip),%rdi        # 4010 <__TMC_END__>
    1187:	48 8d 35 82 2e 00 00 	lea    0x2e82(%rip),%rsi        # 4010 <__TMC_END__>
    118e:	48 29 fe             	sub    %rdi,%rsi
    1191:	48 89 f0             	mov    %rsi,%rax
    1194:	48 c1 ee 3f          	shr    $0x3f,%rsi
    1198:	48 c1 f8 03          	sar    $0x3,%rax
    119c:	48 01 c6             	add    %rax,%rsi
    119f:	48 d1 fe             	sar    $1,%rsi
    11a2:	74 14                	je     11b8 <register_tm_clones+0x38>
    11a4:	48 8b 05 4d 2e 00 00 	mov    0x2e4d(%rip),%rax        # 3ff8 <_ITM_registerTMCloneTable@Base>
    11ab:	48 85 c0             	test   %rax,%rax
    11ae:	74 08                	je     11b8 <register_tm_clones+0x38>
    11b0:	ff e0                	jmp    *%rax
    11b2:	66 0f 1f 44 00 00    	nopw   0x0(%rax,%rax,1)
    11b8:	c3                   	ret
    11b9:	0f 1f 80 00 00 00 00 	nopl   0x0(%rax)

00000000000011c0 <__do_global_dtors_aux>:
    11c0:	f3 0f 1e fa          	endbr64
    11c4:	80 3d 85 2f 00 00 00 	cmpb   $0x0,0x2f85(%rip)        # 4150 <completed.0>
    11cb:	75 2b                	jne    11f8 <__do_global_dtors_aux+0x38>
    11cd:	55                   	push   %rbp
    11ce:	48 83 3d fa 2d 00 00 	cmpq   $0x0,0x2dfa(%rip)        # 3fd0 <__cxa_finalize@GLIBC_2.2.5>
    11d5:	00 
    11d6:	48 89 e5             	mov    %rsp,%rbp
    11d9:	74 0c                	je     11e7 <__do_global_dtors_aux+0x27>
    11db:	48 8b 3d 26 2e 00 00 	mov    0x2e26(%rip),%rdi        # 4008 <__dso_handle>
    11e2:	e8 b9 fe ff ff       	call   10a0 <__cxa_finalize@plt>
    11e7:	e8 64 ff ff ff       	call   1150 <deregister_tm_clones>
    11ec:	c6 05 5d 2f 00 00 01 	movb   $0x1,0x2f5d(%rip)        # 4150 <completed.0>
    11f3:	5d                   	pop    %rbp
    11f4:	c3                   	ret
    11f5:	0f 1f 00             	nopl   (%rax)
    11f8:	c3                   	ret
    11f9:	0f 1f 80 00 00 00 00 	nopl   0x0(%rax)

0000000000001200 <frame_dummy>:
    1200:	f3 0f 1e fa          	endbr64
    1204:	e9 77 ff ff ff       	jmp    1180 <register_tm_clones>

0000000000001209 <_Z4funci>:
    1209:	f3 0f 1e fa          	endbr64
    120d:	55                   	push   %rbp
    120e:	48 89 e5             	mov    %rsp,%rbp
    1211:	48 83 ec 20          	sub    $0x20,%rsp
    1215:	89 7d ec             	mov    %edi,-0x14(%rbp)
    1218:	8b 45 ec             	mov    -0x14(%rbp),%eax
    121b:	48 98                	cltq
    121d:	48 c1 e0 02          	shl    $0x2,%rax
    1221:	48 89 c7             	mov    %rax,%rdi
    1224:	e8 d7 fe ff ff       	call   1100 <malloc@plt>
    1229:	48 89 45 f8          	mov    %rax,-0x8(%rbp)
    122d:	8b 45 ec             	mov    -0x14(%rbp),%eax
    1230:	48 98                	cltq
    1232:	48 8d 14 85 00 00 00 	lea    0x0(,%rax,4),%rdx
    1239:	00 
    123a:	48 8b 45 f8          	mov    -0x8(%rbp),%rax
    123e:	be 00 00 00 00       	mov    $0x0,%esi
    1243:	48 89 c7             	mov    %rax,%rdi
    1246:	e8 75 fe ff ff       	call   10c0 <memset@plt>
    124b:	c7 45 f0 00 00 00 00 	movl   $0x0,-0x10(%rbp)
    1252:	eb 68                	jmp    12bc <_Z4funci+0xb3>
    1254:	8b 45 f0             	mov    -0x10(%rbp),%eax
    1257:	83 e8 02             	sub    $0x2,%eax
    125a:	ba 00 00 00 00       	mov    $0x0,%edx
    125f:	85 c0                	test   %eax,%eax
    1261:	0f 48 c2             	cmovs  %edx,%eax
    1264:	48 98                	cltq
    1266:	48 8d 14 85 00 00 00 	lea    0x0(,%rax,4),%rdx
    126d:	00 
    126e:	48 8b 45 f8          	mov    -0x8(%rbp),%rax
    1272:	48 01 d0             	add    %rdx,%rax
    1275:	8b 10                	mov    (%rax),%edx
    1277:	8b 45 f0             	mov    -0x10(%rbp),%eax
    127a:	83 e8 01             	sub    $0x1,%eax
    127d:	b9 00 00 00 00       	mov    $0x0,%ecx
    1282:	85 c0                	test   %eax,%eax
    1284:	0f 48 c1             	cmovs  %ecx,%eax
    1287:	48 98                	cltq
    1289:	48 8d 0c 85 00 00 00 	lea    0x0(,%rax,4),%rcx
    1290:	00 
    1291:	48 8b 45 f8          	mov    -0x8(%rbp),%rax
    1295:	48 01 c8             	add    %rcx,%rax
    1298:	8b 00                	mov    (%rax),%eax
    129a:	8d 0c 02             	lea    (%rdx,%rax,1),%ecx
    129d:	8b 45 f0             	mov    -0x10(%rbp),%eax
    12a0:	48 98                	cltq
    12a2:	48 8d 14 85 00 00 00 	lea    0x0(,%rax,4),%rdx
    12a9:	00 
    12aa:	48 8b 45 f8          	mov    -0x8(%rbp),%rax
    12ae:	48 01 d0             	add    %rdx,%rax
    12b1:	8b 55 f0             	mov    -0x10(%rbp),%edx
    12b4:	01 ca                	add    %ecx,%edx
    12b6:	89 10                	mov    %edx,(%rax)
    12b8:	83 45 f0 01          	addl   $0x1,-0x10(%rbp)
    12bc:	8b 45 f0             	mov    -0x10(%rbp),%eax
    12bf:	3b 45 ec             	cmp    -0x14(%rbp),%eax
    12c2:	7c 90                	jl     1254 <_Z4funci+0x4b>
    12c4:	c7 45 f4 00 00 00 00 	movl   $0x0,-0xc(%rbp)
    12cb:	eb 38                	jmp    1305 <_Z4funci+0xfc>
    12cd:	8b 45 f4             	mov    -0xc(%rbp),%eax
    12d0:	48 98                	cltq
    12d2:	48 8d 14 85 00 00 00 	lea    0x0(,%rax,4),%rdx
    12d9:	00 
    12da:	48 8b 45 f8          	mov    -0x8(%rbp),%rax
    12de:	48 01 d0             	add    %rdx,%rax
    12e1:	8b 00                	mov    (%rax),%eax
    12e3:	89 c6                	mov    %eax,%esi
    12e5:	48 8d 05 54 2d 00 00 	lea    0x2d54(%rip),%rax        # 4040 <_ZSt4cout@GLIBCXX_3.4>
    12ec:	48 89 c7             	mov    %rax,%rdi
    12ef:	e8 1c fe ff ff       	call   1110 <_ZNSolsEi@plt>
    12f4:	be 20 00 00 00       	mov    $0x20,%esi
    12f9:	48 89 c7             	mov    %rax,%rdi
    12fc:	e8 df fd ff ff       	call   10e0 <_ZStlsISt11char_traitsIcEERSt13basic_ostreamIcT_ES5_c@plt>
    1301:	83 45 f4 01          	addl   $0x1,-0xc(%rbp)
    1305:	8b 45 f4             	mov    -0xc(%rbp),%eax
    1308:	3b 45 ec             	cmp    -0x14(%rbp),%eax
    130b:	7c c0                	jl     12cd <_Z4funci+0xc4>
    130d:	48 8b 05 c4 2c 00 00 	mov    0x2cc4(%rip),%rax        # 3fd8 <_ZSt4endlIcSt11char_traitsIcEERSt13basic_ostreamIT_T0_ES6_@GLIBCXX_3.4>
    1314:	48 89 c6             	mov    %rax,%rsi
    1317:	48 8d 05 22 2d 00 00 	lea    0x2d22(%rip),%rax        # 4040 <_ZSt4cout@GLIBCXX_3.4>
    131e:	48 89 c7             	mov    %rax,%rdi
    1321:	e8 aa fd ff ff       	call   10d0 <_ZNSolsEPFRSoS_E@plt>
    1326:	48 8b 45 f8          	mov    -0x8(%rbp),%rax
    132a:	48 89 c6             	mov    %rax,%rsi
    132d:	48 8d 05 d0 0c 00 00 	lea    0xcd0(%rip),%rax        # 2004 <_IO_stdin_used+0x4>
    1334:	48 89 c7             	mov    %rax,%rdi
    1337:	b8 00 00 00 00       	mov    $0x0,%eax
    133c:	e8 6f fd ff ff       	call   10b0 <printf@plt>
    1341:	48 8b 05 90 2c 00 00 	mov    0x2c90(%rip),%rax        # 3fd8 <_ZSt4endlIcSt11char_traitsIcEERSt13basic_ostreamIT_T0_ES6_@GLIBCXX_3.4>
    1348:	48 89 c6             	mov    %rax,%rsi
    134b:	48 8d 05 ee 2c 00 00 	lea    0x2cee(%rip),%rax        # 4040 <_ZSt4cout@GLIBCXX_3.4>
    1352:	48 89 c7             	mov    %rax,%rdi
    1355:	e8 76 fd ff ff       	call   10d0 <_ZNSolsEPFRSoS_E@plt>
    135a:	48 8b 45 f8          	mov    -0x8(%rbp),%rax
    135e:	48 89 c7             	mov    %rax,%rdi
    1361:	e8 8a fd ff ff       	call   10f0 <free@plt>
    1366:	90                   	nop
    1367:	c9                   	leave
    1368:	c3                   	ret

0000000000001369 <main>:
    1369:	f3 0f 1e fa          	endbr64
    136d:	55                   	push   %rbp
    136e:	48 89 e5             	mov    %rsp,%rbp
    1371:	48 83 ec 10          	sub    $0x10,%rsp
    1375:	c7 45 fc 0a 00 00 00 	movl   $0xa,-0x4(%rbp)
    137c:	eb 0a                	jmp    1388 <main+0x1f>
    137e:	bf 03 00 00 00       	mov    $0x3,%edi
    1383:	e8 81 fe ff ff       	call   1209 <_Z4funci>
    1388:	8b 45 fc             	mov    -0x4(%rbp),%eax
    138b:	8d 50 ff             	lea    -0x1(%rax),%edx
    138e:	89 55 fc             	mov    %edx,-0x4(%rbp)
    1391:	85 c0                	test   %eax,%eax
    1393:	0f 95 c0             	setne  %al
    1396:	84 c0                	test   %al,%al
    1398:	75 e4                	jne    137e <main+0x15>
    139a:	b8 00 00 00 00       	mov    $0x0,%eax
    139f:	c9                   	leave
    13a0:	c3                   	ret

Disassembly of section .fini:

00000000000013a4 <_fini>:
    13a4:	f3 0f 1e fa          	endbr64
    13a8:	48 83 ec 08          	sub    $0x8,%rsp
    13ac:	48 83 c4 08          	add    $0x8,%rsp
    13b0:	c3                   	ret
